
bootrom.elf:     file format elf64-littleriscv


Disassembly of section .text:

0000000001000000 <_start>:
 1000000:	0210011b          	addiw	sp,zero,33
 1000004:	01a11113          	slli	sp,sp,0x1a
 1000008:	00000297          	auipc	t0,0x0
 100000c:	01c28293          	addi	t0,t0,28 # 1000024 <exception>
 1000010:	30529073          	csrw	mtvec,t0
 1000014:	00001297          	auipc	t0,0x1
 1000018:	abc2e283          	lwu	t0,-1348(t0) # 1000ad0 <main>
 100001c:	2b5000ef          	jal	ra,1000ad0 <main>

0000000001000020 <entry_addr>:
 1000020:	01000024          	.word	0x01000024

0000000001000024 <exception>:
 1000024:	72c0006f          	j	1000750 <handle_trap>

0000000001000028 <device_tree>:
 1000028:	edfe0dd0          	.word	0xedfe0dd0
 100002c:	21070000          	.word	0x21070000
 1000030:	38000000          	.word	0x38000000
 1000034:	e0050000          	.word	0xe0050000
 1000038:	28000000          	.word	0x28000000
 100003c:	11000000          	.word	0x11000000
 1000040:	10000000          	.word	0x10000000
 1000044:	00000000          	.word	0x00000000
 1000048:	41010000          	.word	0x41010000
 100004c:	a8050000          	.word	0xa8050000
	...
 1000060:	01000000          	.word	0x01000000
 1000064:	00000000          	.word	0x00000000
 1000068:	03000000          	.word	0x03000000
 100006c:	04000000          	.word	0x04000000
 1000070:	00000000          	.word	0x00000000
 1000074:	02000000          	.word	0x02000000
 1000078:	03000000          	.word	0x03000000
 100007c:	04000000          	.word	0x04000000
 1000080:	0f000000          	.word	0x0f000000
 1000084:	02000000          	.word	0x02000000
 1000088:	03000000          	.word	0x03000000
 100008c:	0f000000          	.word	0x0f000000
 1000090:	1b000000          	.word	0x1b000000
 1000094:	2c687465          	.word	0x2c687465
 1000098:	6163636f          	.word	0x6163636f
 100009c:	642d796d          	.word	0x642d796d
 10000a0:	00007665          	.word	0x00007665
 10000a4:	03000000          	.word	0x03000000
 10000a8:	0b000000          	.word	0x0b000000
 10000ac:	26000000          	.word	0x26000000
 10000b0:	2c687465          	.word	0x2c687465
 10000b4:	6163636f          	.word	0x6163636f
 10000b8:	0000796d          	.word	0x0000796d
 10000bc:	01000000          	.word	0x01000000
 10000c0:	736f6863          	.word	0x736f6863
 10000c4:	00006e65          	.word	0x00006e65
 10000c8:	03000000          	.word	0x03000000
 10000cc:	1a000000          	.word	0x1a000000
 10000d0:	2c000000          	.word	0x2c000000
 10000d4:	636f732f          	.word	0x636f732f
 10000d8:	7261752f          	.word	0x7261752f
 10000dc:	30344074          	.word	0x30344074
 10000e0:	30303030          	.word	0x30303030
 10000e4:	313a3030          	.word	0x313a3030
 10000e8:	30323531          	.word	0x30323531
 10000ec:	00000030          	.word	0x00000030
 10000f0:	02000000          	.word	0x02000000
 10000f4:	01000000          	.word	0x01000000
 10000f8:	6f6d656d          	.word	0x6f6d656d
 10000fc:	38407972          	.word	0x38407972
 1000100:	30303030          	.word	0x30303030
 1000104:	00303030          	.word	0x00303030
 1000108:	03000000          	.word	0x03000000
 100010c:	07000000          	.word	0x07000000
 1000110:	38000000          	.word	0x38000000
 1000114:	6f6d656d          	.word	0x6f6d656d
 1000118:	00007972          	.word	0x00007972
 100011c:	03000000          	.word	0x03000000
 1000120:	10000000          	.word	0x10000000
 1000124:	44000000          	.word	0x44000000
 1000128:	00000000          	.word	0x00000000
 100012c:	00000080          	.word	0x00000080
 1000130:	00000000          	.word	0x00000000
 1000134:	00000020          	.word	0x00000020
 1000138:	02000000          	.word	0x02000000
 100013c:	01000000          	.word	0x01000000
 1000140:	73757063          	.word	0x73757063
 1000144:	00000000          	.word	0x00000000
 1000148:	03000000          	.word	0x03000000
 100014c:	04000000          	.word	0x04000000
 1000150:	00000000          	.word	0x00000000
 1000154:	01000000          	.word	0x01000000
 1000158:	03000000          	.word	0x03000000
 100015c:	04000000          	.word	0x04000000
 1000160:	0f000000          	.word	0x0f000000
 1000164:	00000000          	.word	0x00000000
 1000168:	03000000          	.word	0x03000000
 100016c:	04000000          	.word	0x04000000
 1000170:	48000000          	.word	0x48000000
 1000174:	40787d01          	.word	0x40787d01
 1000178:	01000000          	.word	0x01000000
 100017c:	40757063          	.word	0x40757063
 1000180:	00000030          	.word	0x00000030
 1000184:	03000000          	.word	0x03000000
 1000188:	04000000          	.word	0x04000000
 100018c:	38000000          	.word	0x38000000
 1000190:	00757063          	.word	0x00757063
 1000194:	03000000          	.word	0x03000000
 1000198:	05000000          	.word	0x05000000
 100019c:	5b000000          	.word	0x5b000000
 10001a0:	79616b6f          	.word	0x79616b6f
 10001a4:	00000000          	.word	0x00000000
 10001a8:	03000000          	.word	0x03000000
 10001ac:	11000000          	.word	0x11000000
 10001b0:	1b000000          	.word	0x1b000000
 10001b4:	2c687465          	.word	0x2c687465
 10001b8:	61697261          	.word	0x61697261
 10001bc:	7200656e          	.word	0x7200656e
 10001c0:	76637369          	.word	0x76637369
 10001c4:	00000000          	.word	0x00000000
 10001c8:	03000000          	.word	0x03000000
 10001cc:	04000000          	.word	0x04000000
 10001d0:	62000000          	.word	0x62000000
 10001d4:	80f0fa02          	.word	0x80f0fa02
 10001d8:	03000000          	.word	0x03000000
 10001dc:	0c000000          	.word	0x0c000000
 10001e0:	72000000          	.word	0x72000000
 10001e4:	34367672          	.word	0x34367672
 10001e8:	616d6966          	.word	0x616d6966
 10001ec:	00686364          	.word	0x00686364
 10001f0:	03000000          	.word	0x03000000
 10001f4:	0b000000          	.word	0x0b000000
 10001f8:	7c000000          	.word	0x7c000000
 10001fc:	63736972          	.word	0x63736972
 1000200:	76732c76          	.word	0x76732c76
 1000204:	00003933          	.word	0x00003933
 1000208:	03000000          	.word	0x03000000
 100020c:	00000000          	.word	0x00000000
 1000210:	85000000          	.word	0x85000000
 1000214:	03000000          	.word	0x03000000
 1000218:	04000000          	.word	0x04000000
 100021c:	44000000          	.word	0x44000000
 1000220:	00000000          	.word	0x00000000
 1000224:	01000000          	.word	0x01000000
 1000228:	65746e69          	.word	0x65746e69
 100022c:	70757272          	.word	0x70757272
 1000230:	6f632d74          	.word	0x6f632d74
 1000234:	6f72746e          	.word	0x6f72746e
 1000238:	72656c6c          	.word	0x72656c6c
 100023c:	00000000          	.word	0x00000000
 1000240:	03000000          	.word	0x03000000
 1000244:	04000000          	.word	0x04000000
 1000248:	8f000000          	.word	0x8f000000
 100024c:	01000000          	.word	0x01000000
 1000250:	03000000          	.word	0x03000000
 1000254:	00000000          	.word	0x00000000
 1000258:	a0000000          	.word	0xa0000000
 100025c:	03000000          	.word	0x03000000
 1000260:	0f000000          	.word	0x0f000000
 1000264:	1b000000          	.word	0x1b000000
 1000268:	63736972          	.word	0x63736972
 100026c:	70632c76          	.word	0x70632c76
 1000270:	6e692d75          	.word	0x6e692d75
 1000274:	00006374          	.word	0x00006374
 1000278:	03000000          	.word	0x03000000
 100027c:	04000000          	.word	0x04000000
 1000280:	b5000000          	.word	0xb5000000
 1000284:	01000000          	.word	0x01000000
 1000288:	02000000          	.word	0x02000000
 100028c:	02000000          	.word	0x02000000
 1000290:	02000000          	.word	0x02000000
 1000294:	01000000          	.word	0x01000000
 1000298:	00636f73          	.word	0x00636f73
 100029c:	03000000          	.word	0x03000000
 10002a0:	04000000          	.word	0x04000000
 10002a4:	00000000          	.word	0x00000000
 10002a8:	02000000          	.word	0x02000000
 10002ac:	03000000          	.word	0x03000000
 10002b0:	04000000          	.word	0x04000000
 10002b4:	0f000000          	.word	0x0f000000
 10002b8:	02000000          	.word	0x02000000
 10002bc:	03000000          	.word	0x03000000
 10002c0:	1f000000          	.word	0x1f000000
 10002c4:	1b000000          	.word	0x1b000000
 10002c8:	2c687465          	.word	0x2c687465
 10002cc:	61697261          	.word	0x61697261
 10002d0:	622d656e          	.word	0x622d656e
 10002d4:	2d657261          	.word	0x2d657261
 10002d8:	00636f73          	.word	0x00636f73
 10002dc:	706d6973          	.word	0x706d6973
 10002e0:	622d656c          	.word	0x622d656c
 10002e4:	00007375          	.word	0x00007375
 10002e8:	03000000          	.word	0x03000000
 10002ec:	00000000          	.word	0x00000000
 10002f0:	bd000000          	.word	0xbd000000
 10002f4:	01000000          	.word	0x01000000
 10002f8:	6e696c63          	.word	0x6e696c63
 10002fc:	30324074          	.word	0x30324074
 1000300:	30303030          	.word	0x30303030
 1000304:	00000030          	.word	0x00000030
 1000308:	03000000          	.word	0x03000000
 100030c:	0d000000          	.word	0x0d000000
 1000310:	1b000000          	.word	0x1b000000
 1000314:	63736972          	.word	0x63736972
 1000318:	6c632c76          	.word	0x6c632c76
 100031c:	30746e69          	.word	0x30746e69
 1000320:	00000000          	.word	0x00000000
 1000324:	03000000          	.word	0x03000000
 1000328:	10000000          	.word	0x10000000
 100032c:	c4000000          	.word	0xc4000000
 1000330:	01000000          	.word	0x01000000
 1000334:	03000000          	.word	0x03000000
 1000338:	01000000          	.word	0x01000000
 100033c:	07000000          	.word	0x07000000
 1000340:	03000000          	.word	0x03000000
 1000344:	10000000          	.word	0x10000000
 1000348:	44000000          	.word	0x44000000
 100034c:	00000000          	.word	0x00000000
 1000350:	00000002          	.word	0x00000002
 1000354:	00000000          	.word	0x00000000
 1000358:	00000c00          	.word	0x00000c00
 100035c:	03000000          	.word	0x03000000
 1000360:	08000000          	.word	0x08000000
 1000364:	d8000000          	.word	0xd8000000
 1000368:	746e6f63          	.word	0x746e6f63
 100036c:	006c6f72          	.word	0x006c6f72
 1000370:	02000000          	.word	0x02000000
 1000374:	01000000          	.word	0x01000000
 1000378:	65746e69          	.word	0x65746e69
 100037c:	70757272          	.word	0x70757272
 1000380:	6f632d74          	.word	0x6f632d74
 1000384:	6f72746e          	.word	0x6f72746e
 1000388:	72656c6c          	.word	0x72656c6c
 100038c:	30306340          	.word	0x30306340
 1000390:	30303030          	.word	0x30303030
 1000394:	00000000          	.word	0x00000000
 1000398:	03000000          	.word	0x03000000
 100039c:	04000000          	.word	0x04000000
	...
 10003a8:	03000000          	.word	0x03000000
 10003ac:	04000000          	.word	0x04000000
 10003b0:	8f000000          	.word	0x8f000000
 10003b4:	01000000          	.word	0x01000000
 10003b8:	03000000          	.word	0x03000000
 10003bc:	0c000000          	.word	0x0c000000
 10003c0:	1b000000          	.word	0x1b000000
 10003c4:	63736972          	.word	0x63736972
 10003c8:	6c702c76          	.word	0x6c702c76
 10003cc:	00306369          	.word	0x00306369
 10003d0:	03000000          	.word	0x03000000
 10003d4:	00000000          	.word	0x00000000
 10003d8:	a0000000          	.word	0xa0000000
 10003dc:	03000000          	.word	0x03000000
 10003e0:	10000000          	.word	0x10000000
 10003e4:	c4000000          	.word	0xc4000000
 10003e8:	01000000          	.word	0x01000000
 10003ec:	0b000000          	.word	0x0b000000
 10003f0:	01000000          	.word	0x01000000
 10003f4:	09000000          	.word	0x09000000
 10003f8:	03000000          	.word	0x03000000
 10003fc:	10000000          	.word	0x10000000
 1000400:	44000000          	.word	0x44000000
 1000404:	00000000          	.word	0x00000000
 1000408:	0000000c          	.word	0x0000000c
 100040c:	00000000          	.word	0x00000000
 1000410:	00000004          	.word	0x00000004
 1000414:	03000000          	.word	0x03000000
 1000418:	04000000          	.word	0x04000000
 100041c:	e2000000          	.word	0xe2000000
 1000420:	07000000          	.word	0x07000000
 1000424:	03000000          	.word	0x03000000
 1000428:	04000000          	.word	0x04000000
 100042c:	f5000000          	.word	0xf5000000
 1000430:	ff000000          	.word	0xff000000
 1000434:	03000000          	.word	0x03000000
 1000438:	04000000          	.word	0x04000000
 100043c:	b5000000          	.word	0xb5000000
 1000440:	02000000          	.word	0x02000000
 1000444:	02000000          	.word	0x02000000
 1000448:	01000000          	.word	0x01000000
 100044c:	75626564          	.word	0x75626564
 1000450:	6f632d67          	.word	0x6f632d67
 1000454:	6f72746e          	.word	0x6f72746e
 1000458:	72656c6c          	.word	0x72656c6c
 100045c:	00003040          	.word	0x00003040
 1000460:	03000000          	.word	0x03000000
 1000464:	10000000          	.word	0x10000000
 1000468:	1b000000          	.word	0x1b000000
 100046c:	63736972          	.word	0x63736972
 1000470:	65642c76          	.word	0x65642c76
 1000474:	2d677562          	.word	0x2d677562
 1000478:	00333130          	.word	0x00333130
 100047c:	03000000          	.word	0x03000000
 1000480:	08000000          	.word	0x08000000
 1000484:	c4000000          	.word	0xc4000000
 1000488:	01000000          	.word	0x01000000
 100048c:	ffff0000          	.word	0xffff0000
 1000490:	03000000          	.word	0x03000000
 1000494:	10000000          	.word	0x10000000
 1000498:	44000000          	.word	0x44000000
	...
 10004a8:	00100000          	.word	0x00100000
 10004ac:	03000000          	.word	0x03000000
 10004b0:	08000000          	.word	0x08000000
 10004b4:	d8000000          	.word	0xd8000000
 10004b8:	746e6f63          	.word	0x746e6f63
 10004bc:	006c6f72          	.word	0x006c6f72
 10004c0:	02000000          	.word	0x02000000
 10004c4:	01000000          	.word	0x01000000
 10004c8:	74726175          	.word	0x74726175
 10004cc:	30303440          	.word	0x30303440
 10004d0:	30303030          	.word	0x30303030
 10004d4:	00000030          	.word	0x00000030
 10004d8:	03000000          	.word	0x03000000
 10004dc:	08000000          	.word	0x08000000
 10004e0:	1b000000          	.word	0x1b000000
 10004e4:	3631736e          	.word	0x3631736e
 10004e8:	00303535          	.word	0x00303535
 10004ec:	03000000          	.word	0x03000000
 10004f0:	10000000          	.word	0x10000000
 10004f4:	44000000          	.word	0x44000000
 10004f8:	00000000          	.word	0x00000000
 10004fc:	00000040          	.word	0x00000040
 1000500:	00000000          	.word	0x00000000
 1000504:	00100000          	.word	0x00100000
 1000508:	03000000          	.word	0x03000000
 100050c:	04000000          	.word	0x04000000
 1000510:	62000000          	.word	0x62000000
 1000514:	80f0fa02          	.word	0x80f0fa02
 1000518:	03000000          	.word	0x03000000
 100051c:	04000000          	.word	0x04000000
 1000520:	00010000          	.word	0x00010000
 1000524:	00c20100          	.word	0x00c20100
 1000528:	03000000          	.word	0x03000000
 100052c:	04000000          	.word	0x04000000
 1000530:	0e010000          	.word	0x0e010000
 1000534:	02000000          	.word	0x02000000
 1000538:	03000000          	.word	0x03000000
 100053c:	04000000          	.word	0x04000000
 1000540:	1f010000          	.word	0x1f010000
 1000544:	02000000          	.word	0x02000000
 1000548:	03000000          	.word	0x03000000
 100054c:	04000000          	.word	0x04000000
 1000550:	2a010000          	.word	0x2a010000
 1000554:	02000000          	.word	0x02000000
 1000558:	03000000          	.word	0x03000000
 100055c:	04000000          	.word	0x04000000
 1000560:	34010000          	.word	0x34010000
 1000564:	04000000          	.word	0x04000000
 1000568:	02000000          	.word	0x02000000
 100056c:	01000000          	.word	0x01000000
 1000570:	656d6974          	.word	0x656d6974
 1000574:	38314072          	.word	0x38314072
 1000578:	30303030          	.word	0x30303030
 100057c:	00003030          	.word	0x00003030
 1000580:	03000000          	.word	0x03000000
 1000584:	0f000000          	.word	0x0f000000
 1000588:	1b000000          	.word	0x1b000000
 100058c:	706c7570          	.word	0x706c7570
 1000590:	6270612c          	.word	0x6270612c
 1000594:	6d69745f          	.word	0x6d69745f
 1000598:	00007265          	.word	0x00007265
 100059c:	03000000          	.word	0x03000000
 10005a0:	10000000          	.word	0x10000000
 10005a4:	1f010000          	.word	0x1f010000
 10005a8:	04000000          	.word	0x04000000
 10005ac:	05000000          	.word	0x05000000
 10005b0:	06000000          	.word	0x06000000
 10005b4:	07000000          	.word	0x07000000
 10005b8:	03000000          	.word	0x03000000
 10005bc:	10000000          	.word	0x10000000
 10005c0:	44000000          	.word	0x44000000
 10005c4:	00000000          	.word	0x00000000
 10005c8:	00000018          	.word	0x00000018
 10005cc:	00000000          	.word	0x00000000
 10005d0:	00100000          	.word	0x00100000
 10005d4:	03000000          	.word	0x03000000
 10005d8:	04000000          	.word	0x04000000
 10005dc:	0e010000          	.word	0x0e010000
 10005e0:	02000000          	.word	0x02000000
 10005e4:	03000000          	.word	0x03000000
 10005e8:	08000000          	.word	0x08000000
 10005ec:	d8000000          	.word	0xd8000000
 10005f0:	746e6f63          	.word	0x746e6f63
 10005f4:	006c6f72          	.word	0x006c6f72
 10005f8:	02000000          	.word	0x02000000
 10005fc:	02000000          	.word	0x02000000
 1000600:	02000000          	.word	0x02000000
 1000604:	09000000          	.word	0x09000000
 1000608:	64646123          	.word	0x64646123
 100060c:	73736572          	.word	0x73736572
 1000610:	6c65632d          	.word	0x6c65632d
 1000614:	2300736c          	.word	0x2300736c
 1000618:	657a6973          	.word	0x657a6973
 100061c:	6c65632d          	.word	0x6c65632d
 1000620:	6300736c          	.word	0x6300736c
 1000624:	61706d6f          	.word	0x61706d6f
 1000628:	6c626974          	.word	0x6c626974
 100062c:	6f6d0065          	.word	0x6f6d0065
 1000630:	006c6564          	.word	0x006c6564
 1000634:	6f647473          	.word	0x6f647473
 1000638:	702d7475          	.word	0x702d7475
 100063c:	00687461          	.word	0x00687461
 1000640:	69766564          	.word	0x69766564
 1000644:	745f6563          	.word	0x745f6563
 1000648:	00657079          	.word	0x00657079
 100064c:	00676572          	.word	0x00676572
 1000650:	656d6974          	.word	0x656d6974
 1000654:	65736162          	.word	0x65736162
 1000658:	6572662d          	.word	0x6572662d
 100065c:	6e657571          	.word	0x6e657571
 1000660:	73007963          	.word	0x73007963
 1000664:	75746174          	.word	0x75746174
 1000668:	6c630073          	.word	0x6c630073
 100066c:	2d6b636f          	.word	0x2d6b636f
 1000670:	71657266          	.word	0x71657266
 1000674:	636e6575          	.word	0x636e6575
 1000678:	69720079          	.word	0x69720079
 100067c:	2c766373          	.word	0x2c766373
 1000680:	00617369          	.word	0x00617369
 1000684:	2d756d6d          	.word	0x2d756d6d
 1000688:	65707974          	.word	0x65707974
 100068c:	626c7400          	.word	0x626c7400
 1000690:	6c70732d          	.word	0x6c70732d
 1000694:	23007469          	.word	0x23007469
 1000698:	65746e69          	.word	0x65746e69
 100069c:	70757272          	.word	0x70757272
 10006a0:	65632d74          	.word	0x65632d74
 10006a4:	00736c6c          	.word	0x00736c6c
 10006a8:	65746e69          	.word	0x65746e69
 10006ac:	70757272          	.word	0x70757272
 10006b0:	6f632d74          	.word	0x6f632d74
 10006b4:	6f72746e          	.word	0x6f72746e
 10006b8:	72656c6c          	.word	0x72656c6c
 10006bc:	61687000          	.word	0x61687000
 10006c0:	656c646e          	.word	0x656c646e
 10006c4:	6e617200          	.word	0x6e617200
 10006c8:	00736567          	.word	0x00736567
 10006cc:	65746e69          	.word	0x65746e69
 10006d0:	70757272          	.word	0x70757272
 10006d4:	652d7374          	.word	0x652d7374
 10006d8:	6e657478          	.word	0x6e657478
 10006dc:	00646564          	.word	0x00646564
 10006e0:	2d676572          	.word	0x2d676572
 10006e4:	656d616e          	.word	0x656d616e
 10006e8:	69720073          	.word	0x69720073
 10006ec:	2c766373          	.word	0x2c766373
 10006f0:	2d78616d          	.word	0x2d78616d
 10006f4:	6f697270          	.word	0x6f697270
 10006f8:	79746972          	.word	0x79746972
 10006fc:	73697200          	.word	0x73697200
 1000700:	6e2c7663          	.word	0x6e2c7663
 1000704:	00766564          	.word	0x00766564
 1000708:	72727563          	.word	0x72727563
 100070c:	2d746e65          	.word	0x2d746e65
 1000710:	65657073          	.word	0x65657073
 1000714:	6e690064          	.word	0x6e690064
 1000718:	72726574          	.word	0x72726574
 100071c:	2d747075          	.word	0x2d747075
 1000720:	65726170          	.word	0x65726170
 1000724:	6900746e          	.word	0x6900746e
 1000728:	7265746e          	.word	0x7265746e
 100072c:	74707572          	.word	0x74707572
 1000730:	65720073          	.word	0x65720073
 1000734:	68732d67          	.word	0x68732d67
 1000738:	00746669          	.word	0x00746669
 100073c:	2d676572          	.word	0x2d676572
 1000740:	772d6f69          	.word	0x772d6f69
 1000744:	68746469          	.word	0x68746469
	...

0000000001000750 <handle_trap>:
 1000750:	00008067          	ret

0000000001000754 <config_intp>:
 1000754:	030007b7          	lui	a5,0x3000
 1000758:	00a787bb          	addw	a5,a5,a0
 100075c:	0027979b          	slliw	a5,a5,0x2
 1000760:	00400713          	li	a4,4
 1000764:	00e7a023          	sw	a4,0(a5) # 3000000 <bin_to_hex_table+0x1fff4e0>
 1000768:	0005051b          	sext.w	a0,a0
 100076c:	0c0027b7          	lui	a5,0xc002
 1000770:	eca7ae23          	sw	a0,-292(a5) # c001edc <bin_to_hex_table+0xb0013bc>
 1000774:	00008067          	ret

0000000001000778 <aplic_init>:
 1000778:	0c0007b7          	lui	a5,0xc000
 100077c:	10400713          	li	a4,260
 1000780:	00e7a023          	sw	a4,0(a5) # c000000 <bin_to_hex_table+0xafff4e0>
 1000784:	00008067          	ret

0000000001000788 <aplic_trigger_intp>:
 1000788:	0c0027b7          	lui	a5,0xc002
 100078c:	cca7ae23          	sw	a0,-804(a5) # c001cdc <bin_to_hex_table+0xb0011bc>
 1000790:	00008067          	ret

0000000001000794 <imsic_en_intp>:
 1000794:	030017b7          	lui	a5,0x3001
 1000798:	c007879b          	addiw	a5,a5,-1024 # 3000c00 <bin_to_hex_table+0x20000e0>
 100079c:	00a787bb          	addw	a5,a5,a0
 10007a0:	01261613          	slli	a2,a2,0x12
 10007a4:	0027979b          	slliw	a5,a5,0x2
 10007a8:	00b66633          	or	a2,a2,a1
 10007ac:	00c7a023          	sw	a2,0(a5)
 10007b0:	0c000793          	li	a5,192
 10007b4:	35079073          	csrw	0x350,a5
 10007b8:	351027f3          	csrr	a5,0x351
 10007bc:	00100713          	li	a4,1
 10007c0:	00b7173b          	sllw	a4,a4,a1
 10007c4:	00e7e7b3          	or	a5,a5,a4
 10007c8:	35179073          	csrw	0x351,a5
 10007cc:	00008067          	ret

00000000010007d0 <config_irq_aplic>:
 10007d0:	fe010113          	addi	sp,sp,-32
 10007d4:	00813823          	sd	s0,16(sp)
 10007d8:	00113c23          	sd	ra,24(sp)
 10007dc:	00050413          	mv	s0,a0
 10007e0:	00b13423          	sd	a1,8(sp)
 10007e4:	00c13023          	sd	a2,0(sp)
 10007e8:	f6dff0ef          	jal	ra,1000754 <config_intp>
 10007ec:	00040513          	mv	a0,s0
 10007f0:	01013403          	ld	s0,16(sp)
 10007f4:	00013603          	ld	a2,0(sp)
 10007f8:	00813583          	ld	a1,8(sp)
 10007fc:	01813083          	ld	ra,24(sp)
 1000800:	02010113          	addi	sp,sp,32
 1000804:	f91ff06f          	j	1000794 <imsic_en_intp>

0000000001000808 <imsic_intp_arrive>:
 1000808:	35c027f3          	csrr	a5,0x35c
 100080c:	0107d793          	srli	a5,a5,0x10
 1000810:	fea79ce3          	bne	a5,a0,1000808 <imsic_intp_arrive>
 1000814:	35c05073          	csrwi	0x35c,0
 1000818:	00100513          	li	a0,1
 100081c:	00008067          	ret

0000000001000820 <imsic_init>:
 1000820:	07000793          	li	a5,112
 1000824:	35079073          	csrw	0x350,a5
 1000828:	3510d073          	csrwi	0x351,1
 100082c:	07200793          	li	a5,114
 1000830:	35079073          	csrw	0x350,a5
 1000834:	35105073          	csrwi	0x351,0
 1000838:	00008067          	ret

000000000100083c <aplic_reset>:
 100083c:	35c05073          	csrwi	0x35c,0
 1000840:	35005073          	csrwi	0x350,0
 1000844:	3510d073          	csrwi	0x351,1
 1000848:	35005073          	csrwi	0x350,0
 100084c:	35105073          	csrwi	0x351,0
 1000850:	0c0007b7          	lui	a5,0xc000
 1000854:	0007a023          	sw	zero,0(a5) # c000000 <bin_to_hex_table+0xafff4e0>
 1000858:	0207a423          	sw	zero,40(a5)
 100085c:	0c0027b7          	lui	a5,0xc002
 1000860:	ec07ae23          	sw	zero,-292(a5) # c001edc <bin_to_hex_table+0xb0013bc>
 1000864:	0c0037b7          	lui	a5,0xc003
 1000868:	0207a423          	sw	zero,40(a5) # c003028 <bin_to_hex_table+0xb002508>
 100086c:	35105073          	csrwi	0x351,0
 1000870:	35005073          	csrwi	0x350,0
 1000874:	00008067          	ret

0000000001000878 <wait_for_boot_irq>:
 1000878:	ff010113          	addi	sp,sp,-16
 100087c:	00113423          	sd	ra,8(sp)
 1000880:	fa1ff0ef          	jal	ra,1000820 <imsic_init>
 1000884:	f14027f3          	csrr	a5,mhartid
 1000888:	00100613          	li	a2,1
 100088c:	02079463          	bnez	a5,10008b4 <wait_for_boot_irq+0x3c>
 1000890:	0c0007b7          	lui	a5,0xc000
 1000894:	10400713          	li	a4,260
 1000898:	00e7a023          	sw	a4,0(a5) # c000000 <bin_to_hex_table+0xafff4e0>
 100089c:	00400713          	li	a4,4
 10008a0:	02e7a423          	sw	a4,40(a5)
 10008a4:	0c0027b7          	lui	a5,0xc002
 10008a8:	00a00713          	li	a4,10
 10008ac:	ece7ae23          	sw	a4,-292(a5) # c001edc <bin_to_hex_table+0xb0013bc>
 10008b0:	00000613          	li	a2,0
 10008b4:	00a00593          	li	a1,10
 10008b8:	00a00513          	li	a0,10
 10008bc:	ed9ff0ef          	jal	ra,1000794 <imsic_en_intp>
 10008c0:	10500073          	wfi
 10008c4:	00813083          	ld	ra,8(sp)
 10008c8:	00a00513          	li	a0,10
 10008cc:	01010113          	addi	sp,sp,16
 10008d0:	f39ff06f          	j	1000808 <imsic_intp_arrive>

00000000010008d4 <claim_irq>:
 10008d4:	f14027f3          	csrr	a5,mhartid
 10008d8:	00079a63          	bnez	a5,10008ec <claim_irq+0x18>
 10008dc:	00100613          	li	a2,1
 10008e0:	00a00593          	li	a1,10
 10008e4:	00a00513          	li	a0,10
 10008e8:	eadff06f          	j	1000794 <imsic_en_intp>
 10008ec:	f51ff06f          	j	100083c <aplic_reset>

00000000010008f0 <boot>:
 10008f0:	104047b7          	lui	a5,0x10404
 10008f4:	0207a223          	sw	zero,36(a5) # 10404024 <bin_to_hex_table+0xf403504>
 10008f8:	10404537          	lui	a0,0x10404
 10008fc:	00056283          	lwu	t0,0(a0) # 10404000 <bin_to_hex_table+0xf4034e0>
 1000900:	00028067          	jr	t0
 1000904:	00008067          	ret

0000000001000908 <write_reg_u8>:
 1000908:	00b50023          	sb	a1,0(a0)
 100090c:	00008067          	ret

0000000001000910 <read_reg_u8>:
 1000910:	00054503          	lbu	a0,0(a0)
 1000914:	00008067          	ret

0000000001000918 <is_transmit_empty>:
 1000918:	400007b7          	lui	a5,0x40000
 100091c:	0147c503          	lbu	a0,20(a5) # 40000014 <bin_to_hex_table+0x3efff4f4>
 1000920:	02057513          	andi	a0,a0,32
 1000924:	00008067          	ret

0000000001000928 <write_serial>:
 1000928:	40000737          	lui	a4,0x40000
 100092c:	01474783          	lbu	a5,20(a4) # 40000014 <bin_to_hex_table+0x3efff4f4>
 1000930:	0207f793          	andi	a5,a5,32
 1000934:	fe078ce3          	beqz	a5,100092c <write_serial+0x4>
 1000938:	00a70023          	sb	a0,0(a4)
 100093c:	00008067          	ret

0000000001000940 <init_uart>:
 1000940:	0045959b          	slliw	a1,a1,0x4
 1000944:	02b5553b          	divuw	a0,a0,a1
 1000948:	400007b7          	lui	a5,0x40000
 100094c:	00078223          	sb	zero,4(a5) # 40000004 <bin_to_hex_table+0x3efff4e4>
 1000950:	f8000713          	li	a4,-128
 1000954:	00e78623          	sb	a4,12(a5)
 1000958:	0ff57713          	zext.b	a4,a0
 100095c:	0085551b          	srliw	a0,a0,0x8
 1000960:	00e78023          	sb	a4,0(a5)
 1000964:	0ff57513          	zext.b	a0,a0
 1000968:	00a78223          	sb	a0,4(a5)
 100096c:	00300713          	li	a4,3
 1000970:	00e78623          	sb	a4,12(a5)
 1000974:	fc700713          	li	a4,-57
 1000978:	00e78423          	sb	a4,8(a5)
 100097c:	02000713          	li	a4,32
 1000980:	00e78823          	sb	a4,16(a5)
 1000984:	00008067          	ret

0000000001000988 <print_uart>:
 1000988:	ff010113          	addi	sp,sp,-16
 100098c:	00813023          	sd	s0,0(sp)
 1000990:	00113423          	sd	ra,8(sp)
 1000994:	00050413          	mv	s0,a0
 1000998:	00044503          	lbu	a0,0(s0)
 100099c:	00051a63          	bnez	a0,10009b0 <print_uart+0x28>
 10009a0:	00813083          	ld	ra,8(sp)
 10009a4:	00013403          	ld	s0,0(sp)
 10009a8:	01010113          	addi	sp,sp,16
 10009ac:	00008067          	ret
 10009b0:	f79ff0ef          	jal	ra,1000928 <write_serial>
 10009b4:	00140413          	addi	s0,s0,1
 10009b8:	fe1ff06f          	j	1000998 <print_uart+0x10>

00000000010009bc <bin_to_hex>:
 10009bc:	00000797          	auipc	a5,0x0
 10009c0:	16478793          	addi	a5,a5,356 # 1000b20 <bin_to_hex_table>
 10009c4:	00f57713          	andi	a4,a0,15
 10009c8:	00e78733          	add	a4,a5,a4
 10009cc:	00074703          	lbu	a4,0(a4)
 10009d0:	00455513          	srli	a0,a0,0x4
 10009d4:	00a787b3          	add	a5,a5,a0
 10009d8:	00e580a3          	sb	a4,1(a1)
 10009dc:	0007c783          	lbu	a5,0(a5)
 10009e0:	00f58023          	sb	a5,0(a1)
 10009e4:	00008067          	ret

00000000010009e8 <print_uart_int>:
 10009e8:	fd010113          	addi	sp,sp,-48
 10009ec:	02813023          	sd	s0,32(sp)
 10009f0:	00913c23          	sd	s1,24(sp)
 10009f4:	01213823          	sd	s2,16(sp)
 10009f8:	02113423          	sd	ra,40(sp)
 10009fc:	00050493          	mv	s1,a0
 1000a00:	01800413          	li	s0,24
 1000a04:	ff800913          	li	s2,-8
 1000a08:	0084d53b          	srlw	a0,s1,s0
 1000a0c:	00810593          	addi	a1,sp,8
 1000a10:	0ff57513          	zext.b	a0,a0
 1000a14:	fa9ff0ef          	jal	ra,10009bc <bin_to_hex>
 1000a18:	00814503          	lbu	a0,8(sp)
 1000a1c:	ff84041b          	addiw	s0,s0,-8
 1000a20:	f09ff0ef          	jal	ra,1000928 <write_serial>
 1000a24:	00914503          	lbu	a0,9(sp)
 1000a28:	f01ff0ef          	jal	ra,1000928 <write_serial>
 1000a2c:	fd241ee3          	bne	s0,s2,1000a08 <print_uart_int+0x20>
 1000a30:	02813083          	ld	ra,40(sp)
 1000a34:	02013403          	ld	s0,32(sp)
 1000a38:	01813483          	ld	s1,24(sp)
 1000a3c:	01013903          	ld	s2,16(sp)
 1000a40:	03010113          	addi	sp,sp,48
 1000a44:	00008067          	ret

0000000001000a48 <print_uart_addr>:
 1000a48:	fd010113          	addi	sp,sp,-48
 1000a4c:	02813023          	sd	s0,32(sp)
 1000a50:	00913c23          	sd	s1,24(sp)
 1000a54:	01213823          	sd	s2,16(sp)
 1000a58:	02113423          	sd	ra,40(sp)
 1000a5c:	00050493          	mv	s1,a0
 1000a60:	03800413          	li	s0,56
 1000a64:	ff800913          	li	s2,-8
 1000a68:	0084d533          	srl	a0,s1,s0
 1000a6c:	00810593          	addi	a1,sp,8
 1000a70:	0ff57513          	zext.b	a0,a0
 1000a74:	f49ff0ef          	jal	ra,10009bc <bin_to_hex>
 1000a78:	00814503          	lbu	a0,8(sp)
 1000a7c:	ff84041b          	addiw	s0,s0,-8
 1000a80:	ea9ff0ef          	jal	ra,1000928 <write_serial>
 1000a84:	00914503          	lbu	a0,9(sp)
 1000a88:	ea1ff0ef          	jal	ra,1000928 <write_serial>
 1000a8c:	fd241ee3          	bne	s0,s2,1000a68 <print_uart_addr+0x20>
 1000a90:	02813083          	ld	ra,40(sp)
 1000a94:	02013403          	ld	s0,32(sp)
 1000a98:	01813483          	ld	s1,24(sp)
 1000a9c:	01013903          	ld	s2,16(sp)
 1000aa0:	03010113          	addi	sp,sp,48
 1000aa4:	00008067          	ret

0000000001000aa8 <print_uart_byte>:
 1000aa8:	fe010113          	addi	sp,sp,-32
 1000aac:	00810593          	addi	a1,sp,8
 1000ab0:	00113c23          	sd	ra,24(sp)
 1000ab4:	f09ff0ef          	jal	ra,10009bc <bin_to_hex>
 1000ab8:	00814503          	lbu	a0,8(sp)
 1000abc:	e6dff0ef          	jal	ra,1000928 <write_serial>
 1000ac0:	00914503          	lbu	a0,9(sp)
 1000ac4:	01813083          	ld	ra,24(sp)
 1000ac8:	02010113          	addi	sp,sp,32
 1000acc:	e5dff06f          	j	1000928 <write_serial>

Disassembly of section .text.startup:

0000000001000ad0 <main>:
 1000ad0:	f1402573          	csrr	a0,mhartid
 1000ad4:	fffff597          	auipc	a1,0xfffff
 1000ad8:	55458593          	addi	a1,a1,1364 # 1000028 <device_tree>
 1000adc:	f1402773          	csrr	a4,mhartid
 1000ae0:	00100793          	li	a5,1
 1000ae4:	00e7f663          	bgeu	a5,a4,1000af0 <main+0x20>
 1000ae8:	10500073          	wfi
 1000aec:	ffdff06f          	j	1000ae8 <main+0x18>
 1000af0:	ff010113          	addi	sp,sp,-16
 1000af4:	000027b7          	lui	a5,0x2
 1000af8:	00113423          	sd	ra,8(sp)
 1000afc:	8087879b          	addiw	a5,a5,-2040 # 1808 <_start-0xffe7f8>
 1000b00:	30079073          	csrw	mstatus,a5
 1000b04:	000017b7          	lui	a5,0x1
 1000b08:	8007879b          	addiw	a5,a5,-2048 # 800 <_start-0xfff800>
 1000b0c:	30479073          	csrw	mie,a5
 1000b10:	d69ff0ef          	jal	ra,1000878 <wait_for_boot_irq>
 1000b14:	dc1ff0ef          	jal	ra,10008d4 <claim_irq>
 1000b18:	dd9ff0ef          	jal	ra,10008f0 <boot>
 1000b1c:	ff5ff06f          	j	1000b10 <main+0x40>
