
bootrom.elf:     file format elf64-littleriscv


Disassembly of section .text:

0000000001000000 <_start>:
 1000000:	0210011b          	addiw	sp,zero,33
 1000004:	01a11113          	slli	sp,sp,0x1a
 1000008:	00000297          	auipc	t0,0x0
 100000c:	01828293          	addi	t0,t0,24 # 1000020 <exception>
 1000010:	30529073          	csrw	mtvec,t0
 1000014:	00001297          	auipc	t0,0x1
 1000018:	9102e283          	lwu	t0,-1776(t0) # 1000924 <main>
 100001c:	109000ef          	jal	ra,1000924 <main>

0000000001000020 <exception>:
 1000020:	10500073          	wfi
 1000024:	ffdff06f          	j	1000020 <exception>

0000000001000028 <entry_addr>:
 1000028:	0020                	addi	s0,sp,8
 100002a:	0100                	addi	s0,sp,128
 100002c:	00000013          	nop

0000000001000030 <device_tree>:
 1000030:	0dd0                	addi	a2,sp,724
 1000032:	edfe                	sd	t6,216(sp)
 1000034:	0000                	unimp
 1000036:	00002107          	flw	ft2,0(zero) # 0 <_start-0x1000000>
 100003a:	3800                	fld	fs0,48(s0)
 100003c:	0000                	unimp
 100003e:	e005                	bnez	s0,100005e <device_tree+0x2e>
 1000040:	0000                	unimp
 1000042:	2800                	fld	fs0,16(s0)
 1000044:	0000                	unimp
 1000046:	1100                	addi	s0,sp,160
 1000048:	0000                	unimp
 100004a:	1000                	addi	s0,sp,32
 100004c:	0000                	unimp
 100004e:	0000                	unimp
 1000050:	0000                	unimp
 1000052:	4101                	li	sp,0
 1000054:	0000                	unimp
 1000056:	a805                	j	1000086 <device_tree+0x56>
	...
 1000068:	0000                	unimp
 100006a:	0100                	addi	s0,sp,128
 100006c:	0000                	unimp
 100006e:	0000                	unimp
 1000070:	0000                	unimp
 1000072:	0300                	addi	s0,sp,384
 1000074:	0000                	unimp
 1000076:	0400                	addi	s0,sp,512
 1000078:	0000                	unimp
 100007a:	0000                	unimp
 100007c:	0000                	unimp
 100007e:	0200                	addi	s0,sp,256
 1000080:	0000                	unimp
 1000082:	0300                	addi	s0,sp,384
 1000084:	0000                	unimp
 1000086:	0400                	addi	s0,sp,512
 1000088:	0000                	unimp
 100008a:	0f00                	addi	s0,sp,912
 100008c:	0000                	unimp
 100008e:	0200                	addi	s0,sp,256
 1000090:	0000                	unimp
 1000092:	0300                	addi	s0,sp,384
 1000094:	0000                	unimp
 1000096:	0f00                	addi	s0,sp,912
 1000098:	0000                	unimp
 100009a:	1b00                	addi	s0,sp,432
 100009c:	7465                	lui	s0,0xffff9
 100009e:	2c68                	fld	fa0,216(s0)
 10000a0:	6163636f          	jal	t1,10366b6 <bin_to_hex_table+0x35d5e>
 10000a4:	796d                	lui	s2,0xffffb
 10000a6:	642d                	lui	s0,0xb
 10000a8:	7665                	lui	a2,0xffff9
 10000aa:	0000                	unimp
 10000ac:	0000                	unimp
 10000ae:	0300                	addi	s0,sp,384
 10000b0:	0000                	unimp
 10000b2:	0b00                	addi	s0,sp,400
 10000b4:	0000                	unimp
 10000b6:	2600                	fld	fs0,8(a2)
 10000b8:	7465                	lui	s0,0xffff9
 10000ba:	2c68                	fld	fa0,216(s0)
 10000bc:	6163636f          	jal	t1,10366d2 <bin_to_hex_table+0x35d7a>
 10000c0:	796d                	lui	s2,0xffffb
 10000c2:	0000                	unimp
 10000c4:	0000                	unimp
 10000c6:	0100                	addi	s0,sp,128
 10000c8:	736f6863          	bltu	t5,s6,10007f8 <print_uart+0x20>
 10000cc:	6e65                	lui	t3,0x19
 10000ce:	0000                	unimp
 10000d0:	0000                	unimp
 10000d2:	0300                	addi	s0,sp,384
 10000d4:	0000                	unimp
 10000d6:	1a00                	addi	s0,sp,304
 10000d8:	0000                	unimp
 10000da:	2c00                	fld	fs0,24(s0)
 10000dc:	636f732f          	0x636f732f
 10000e0:	7261752f          	0x7261752f
 10000e4:	4074                	lw	a3,68(s0)
 10000e6:	3034                	fld	fa3,96(s0)
 10000e8:	3030                	fld	fa2,96(s0)
 10000ea:	3030                	fld	fa2,96(s0)
 10000ec:	3030                	fld	fa2,96(s0)
 10000ee:	313a                	fld	ft2,424(sp)
 10000f0:	3531                	addiw	a0,a0,-20
 10000f2:	3032                	fld	ft0,296(sp)
 10000f4:	0030                	addi	a2,sp,8
 10000f6:	0000                	unimp
 10000f8:	0000                	unimp
 10000fa:	0200                	addi	s0,sp,256
 10000fc:	0000                	unimp
 10000fe:	0100                	addi	s0,sp,128
 1000100:	656d                	lui	a0,0x1b
 1000102:	6f6d                	lui	t5,0x1b
 1000104:	7972                	ld	s2,312(sp)
 1000106:	3840                	fld	fs0,176(s0)
 1000108:	3030                	fld	fa2,96(s0)
 100010a:	3030                	fld	fa2,96(s0)
 100010c:	3030                	fld	fa2,96(s0)
 100010e:	0030                	addi	a2,sp,8
 1000110:	0000                	unimp
 1000112:	0300                	addi	s0,sp,384
 1000114:	0000                	unimp
 1000116:	0700                	addi	s0,sp,896
 1000118:	0000                	unimp
 100011a:	3800                	fld	fs0,48(s0)
 100011c:	656d                	lui	a0,0x1b
 100011e:	6f6d                	lui	t5,0x1b
 1000120:	7972                	ld	s2,312(sp)
 1000122:	0000                	unimp
 1000124:	0000                	unimp
 1000126:	0300                	addi	s0,sp,384
 1000128:	0000                	unimp
 100012a:	1000                	addi	s0,sp,32
 100012c:	0000                	unimp
 100012e:	4400                	lw	s0,8(s0)
 1000130:	0000                	unimp
 1000132:	0000                	unimp
 1000134:	0080                	addi	s0,sp,64
 1000136:	0000                	unimp
 1000138:	0000                	unimp
 100013a:	0000                	unimp
 100013c:	0020                	addi	s0,sp,8
 100013e:	0000                	unimp
 1000140:	0000                	unimp
 1000142:	0200                	addi	s0,sp,256
 1000144:	0000                	unimp
 1000146:	0100                	addi	s0,sp,128
 1000148:	73757063          	bleu	s7,a0,1000868 <print_uart_int+0x30>
 100014c:	0000                	unimp
 100014e:	0000                	unimp
 1000150:	0000                	unimp
 1000152:	0300                	addi	s0,sp,384
 1000154:	0000                	unimp
 1000156:	0400                	addi	s0,sp,512
 1000158:	0000                	unimp
 100015a:	0000                	unimp
 100015c:	0000                	unimp
 100015e:	0100                	addi	s0,sp,128
 1000160:	0000                	unimp
 1000162:	0300                	addi	s0,sp,384
 1000164:	0000                	unimp
 1000166:	0400                	addi	s0,sp,512
 1000168:	0000                	unimp
 100016a:	0f00                	addi	s0,sp,912
 100016c:	0000                	unimp
 100016e:	0000                	unimp
 1000170:	0000                	unimp
 1000172:	0300                	addi	s0,sp,384
 1000174:	0000                	unimp
 1000176:	0400                	addi	s0,sp,512
 1000178:	0000                	unimp
 100017a:	4800                	lw	s0,16(s0)
 100017c:	7d01                	lui	s10,0xfffe0
 100017e:	4078                	lw	a4,68(s0)
 1000180:	0000                	unimp
 1000182:	0100                	addi	s0,sp,128
 1000184:	40757063          	bleu	t2,a0,1000584 <device_tree+0x554>
 1000188:	0030                	addi	a2,sp,8
 100018a:	0000                	unimp
 100018c:	0000                	unimp
 100018e:	0300                	addi	s0,sp,384
 1000190:	0000                	unimp
 1000192:	0400                	addi	s0,sp,512
 1000194:	0000                	unimp
 1000196:	3800                	fld	fs0,48(s0)
 1000198:	00757063          	bleu	t2,a0,1000198 <device_tree+0x168>
 100019c:	0000                	unimp
 100019e:	0300                	addi	s0,sp,384
 10001a0:	0000                	unimp
 10001a2:	0500                	addi	s0,sp,640
 10001a4:	0000                	unimp
 10001a6:	5b00                	lw	s0,48(a4)
 10001a8:	79616b6f          	jal	s6,101693e <bin_to_hex_table+0x15fe6>
 10001ac:	0000                	unimp
 10001ae:	0000                	unimp
 10001b0:	0000                	unimp
 10001b2:	0300                	addi	s0,sp,384
 10001b4:	0000                	unimp
 10001b6:	1100                	addi	s0,sp,160
 10001b8:	0000                	unimp
 10001ba:	1b00                	addi	s0,sp,432
 10001bc:	7465                	lui	s0,0xffff9
 10001be:	2c68                	fld	fa0,216(s0)
 10001c0:	7261                	lui	tp,0xffff8
 10001c2:	6169                	addi	sp,sp,208
 10001c4:	656e                	ld	a0,216(sp)
 10001c6:	7200                	ld	s0,32(a2)
 10001c8:	7369                	lui	t1,0xffffa
 10001ca:	00007663          	bleu	zero,zero,10001d6 <device_tree+0x1a6>
 10001ce:	0000                	unimp
 10001d0:	0000                	unimp
 10001d2:	0300                	addi	s0,sp,384
 10001d4:	0000                	unimp
 10001d6:	0400                	addi	s0,sp,512
 10001d8:	0000                	unimp
 10001da:	6200                	ld	s0,0(a2)
 10001dc:	fa02                	sd	zero,304(sp)
 10001de:	80f0                	0x80f0
 10001e0:	0000                	unimp
 10001e2:	0300                	addi	s0,sp,384
 10001e4:	0000                	unimp
 10001e6:	0c00                	addi	s0,sp,528
 10001e8:	0000                	unimp
 10001ea:	7200                	ld	s0,32(a2)
 10001ec:	7672                	ld	a2,312(sp)
 10001ee:	3436                	fld	fs0,360(sp)
 10001f0:	6966                	ld	s2,88(sp)
 10001f2:	616d                	addi	sp,sp,240
 10001f4:	6364                	ld	s1,192(a4)
 10001f6:	0068                	addi	a0,sp,12
 10001f8:	0000                	unimp
 10001fa:	0300                	addi	s0,sp,384
 10001fc:	0000                	unimp
 10001fe:	0b00                	addi	s0,sp,400
 1000200:	0000                	unimp
 1000202:	7c00                	ld	s0,56(s0)
 1000204:	6972                	ld	s2,280(sp)
 1000206:	2c766373          	csrrsi	t1,0x2c7,12
 100020a:	39337673          	csrrci	a2,0x393,6
 100020e:	0000                	unimp
 1000210:	0000                	unimp
 1000212:	0300                	addi	s0,sp,384
 1000214:	0000                	unimp
 1000216:	0000                	unimp
 1000218:	0000                	unimp
 100021a:	8500                	0x8500
 100021c:	0000                	unimp
 100021e:	0300                	addi	s0,sp,384
 1000220:	0000                	unimp
 1000222:	0400                	addi	s0,sp,512
 1000224:	0000                	unimp
 1000226:	4400                	lw	s0,8(s0)
 1000228:	0000                	unimp
 100022a:	0000                	unimp
 100022c:	0000                	unimp
 100022e:	0100                	addi	s0,sp,128
 1000230:	6e69                	lui	t3,0x1a
 1000232:	6574                	ld	a3,200(a0)
 1000234:	7272                	ld	tp,312(sp)
 1000236:	7075                	0x7075
 1000238:	2d74                	fld	fa3,216(a0)
 100023a:	746e6f63          	bltu	t3,t1,1000998 <bin_to_hex_table+0x40>
 100023e:	6f72                	ld	t5,280(sp)
 1000240:	6c6c                	ld	a1,216(s0)
 1000242:	7265                	lui	tp,0xffff9
 1000244:	0000                	unimp
 1000246:	0000                	unimp
 1000248:	0000                	unimp
 100024a:	0300                	addi	s0,sp,384
 100024c:	0000                	unimp
 100024e:	0400                	addi	s0,sp,512
 1000250:	0000                	unimp
 1000252:	8f00                	0x8f00
 1000254:	0000                	unimp
 1000256:	0100                	addi	s0,sp,128
 1000258:	0000                	unimp
 100025a:	0300                	addi	s0,sp,384
 100025c:	0000                	unimp
 100025e:	0000                	unimp
 1000260:	0000                	unimp
 1000262:	a000                	fsd	fs0,0(s0)
 1000264:	0000                	unimp
 1000266:	0300                	addi	s0,sp,384
 1000268:	0000                	unimp
 100026a:	0f00                	addi	s0,sp,912
 100026c:	0000                	unimp
 100026e:	1b00                	addi	s0,sp,432
 1000270:	6972                	ld	s2,280(sp)
 1000272:	2c766373          	csrrsi	t1,0x2c7,12
 1000276:	2d757063          	bleu	s7,a0,1000536 <device_tree+0x506>
 100027a:	6e69                	lui	t3,0x1a
 100027c:	6374                	ld	a3,192(a4)
 100027e:	0000                	unimp
 1000280:	0000                	unimp
 1000282:	0300                	addi	s0,sp,384
 1000284:	0000                	unimp
 1000286:	0400                	addi	s0,sp,512
 1000288:	0000                	unimp
 100028a:	b500                	fsd	fs0,40(a0)
 100028c:	0000                	unimp
 100028e:	0100                	addi	s0,sp,128
 1000290:	0000                	unimp
 1000292:	0200                	addi	s0,sp,256
 1000294:	0000                	unimp
 1000296:	0200                	addi	s0,sp,256
 1000298:	0000                	unimp
 100029a:	0200                	addi	s0,sp,256
 100029c:	0000                	unimp
 100029e:	0100                	addi	s0,sp,128
 10002a0:	00636f73          	csrrsi	t5,0x6,6
 10002a4:	0000                	unimp
 10002a6:	0300                	addi	s0,sp,384
 10002a8:	0000                	unimp
 10002aa:	0400                	addi	s0,sp,512
 10002ac:	0000                	unimp
 10002ae:	0000                	unimp
 10002b0:	0000                	unimp
 10002b2:	0200                	addi	s0,sp,256
 10002b4:	0000                	unimp
 10002b6:	0300                	addi	s0,sp,384
 10002b8:	0000                	unimp
 10002ba:	0400                	addi	s0,sp,512
 10002bc:	0000                	unimp
 10002be:	0f00                	addi	s0,sp,912
 10002c0:	0000                	unimp
 10002c2:	0200                	addi	s0,sp,256
 10002c4:	0000                	unimp
 10002c6:	0300                	addi	s0,sp,384
 10002c8:	0000                	unimp
 10002ca:	1f00                	addi	s0,sp,944
 10002cc:	0000                	unimp
 10002ce:	1b00                	addi	s0,sp,432
 10002d0:	7465                	lui	s0,0xffff9
 10002d2:	2c68                	fld	fa0,216(s0)
 10002d4:	7261                	lui	tp,0xffff8
 10002d6:	6169                	addi	sp,sp,208
 10002d8:	656e                	ld	a0,216(sp)
 10002da:	622d                	lui	tp,0xb
 10002dc:	7261                	lui	tp,0xffff8
 10002de:	2d65                	addiw	s10,s10,25
 10002e0:	00636f73          	csrrsi	t5,0x6,6
 10002e4:	706d6973          	csrrsi	s2,0x706,26
 10002e8:	656c                	ld	a1,200(a0)
 10002ea:	622d                	lui	tp,0xb
 10002ec:	7375                	lui	t1,0xffffd
 10002ee:	0000                	unimp
 10002f0:	0000                	unimp
 10002f2:	0300                	addi	s0,sp,384
 10002f4:	0000                	unimp
 10002f6:	0000                	unimp
 10002f8:	0000                	unimp
 10002fa:	bd00                	fsd	fs0,56(a0)
 10002fc:	0000                	unimp
 10002fe:	0100                	addi	s0,sp,128
 1000300:	6e696c63          	bltu	s2,t1,10009f8 <bin_to_hex_table+0xa0>
 1000304:	4074                	lw	a3,68(s0)
 1000306:	3032                	fld	ft0,296(sp)
 1000308:	3030                	fld	fa2,96(s0)
 100030a:	3030                	fld	fa2,96(s0)
 100030c:	0030                	addi	a2,sp,8
 100030e:	0000                	unimp
 1000310:	0000                	unimp
 1000312:	0300                	addi	s0,sp,384
 1000314:	0000                	unimp
 1000316:	0d00                	addi	s0,sp,656
 1000318:	0000                	unimp
 100031a:	1b00                	addi	s0,sp,432
 100031c:	6972                	ld	s2,280(sp)
 100031e:	2c766373          	csrrsi	t1,0x2c7,12
 1000322:	6e696c63          	bltu	s2,t1,1000a1a <bin_to_hex_table+0xc2>
 1000326:	3074                	fld	fa3,224(s0)
 1000328:	0000                	unimp
 100032a:	0000                	unimp
 100032c:	0000                	unimp
 100032e:	0300                	addi	s0,sp,384
 1000330:	0000                	unimp
 1000332:	1000                	addi	s0,sp,32
 1000334:	0000                	unimp
 1000336:	c400                	sw	s0,8(s0)
 1000338:	0000                	unimp
 100033a:	0100                	addi	s0,sp,128
 100033c:	0000                	unimp
 100033e:	0300                	addi	s0,sp,384
 1000340:	0000                	unimp
 1000342:	0100                	addi	s0,sp,128
 1000344:	0000                	unimp
 1000346:	0700                	addi	s0,sp,896
 1000348:	0000                	unimp
 100034a:	0300                	addi	s0,sp,384
 100034c:	0000                	unimp
 100034e:	1000                	addi	s0,sp,32
 1000350:	0000                	unimp
 1000352:	4400                	lw	s0,8(s0)
 1000354:	0000                	unimp
 1000356:	0000                	unimp
 1000358:	0002                	0x2
 100035a:	0000                	unimp
 100035c:	0000                	unimp
 100035e:	0000                	unimp
 1000360:	0c00                	addi	s0,sp,528
 1000362:	0000                	unimp
 1000364:	0000                	unimp
 1000366:	0300                	addi	s0,sp,384
 1000368:	0000                	unimp
 100036a:	0800                	addi	s0,sp,16
 100036c:	0000                	unimp
 100036e:	d800                	sw	s0,48(s0)
 1000370:	746e6f63          	bltu	t3,t1,1000ace <bin_to_hex_table+0x176>
 1000374:	6f72                	ld	t5,280(sp)
 1000376:	006c                	addi	a1,sp,12
 1000378:	0000                	unimp
 100037a:	0200                	addi	s0,sp,256
 100037c:	0000                	unimp
 100037e:	0100                	addi	s0,sp,128
 1000380:	6e69                	lui	t3,0x1a
 1000382:	6574                	ld	a3,200(a0)
 1000384:	7272                	ld	tp,312(sp)
 1000386:	7075                	0x7075
 1000388:	2d74                	fld	fa3,216(a0)
 100038a:	746e6f63          	bltu	t3,t1,1000ae8 <bin_to_hex_table+0x190>
 100038e:	6f72                	ld	t5,280(sp)
 1000390:	6c6c                	ld	a1,216(s0)
 1000392:	7265                	lui	tp,0xffff9
 1000394:	6340                	ld	s0,128(a4)
 1000396:	3030                	fld	fa2,96(s0)
 1000398:	3030                	fld	fa2,96(s0)
 100039a:	3030                	fld	fa2,96(s0)
 100039c:	0000                	unimp
 100039e:	0000                	unimp
 10003a0:	0000                	unimp
 10003a2:	0300                	addi	s0,sp,384
 10003a4:	0000                	unimp
 10003a6:	0400                	addi	s0,sp,512
	...
 10003b0:	0000                	unimp
 10003b2:	0300                	addi	s0,sp,384
 10003b4:	0000                	unimp
 10003b6:	0400                	addi	s0,sp,512
 10003b8:	0000                	unimp
 10003ba:	8f00                	0x8f00
 10003bc:	0000                	unimp
 10003be:	0100                	addi	s0,sp,128
 10003c0:	0000                	unimp
 10003c2:	0300                	addi	s0,sp,384
 10003c4:	0000                	unimp
 10003c6:	0c00                	addi	s0,sp,528
 10003c8:	0000                	unimp
 10003ca:	1b00                	addi	s0,sp,432
 10003cc:	6972                	ld	s2,280(sp)
 10003ce:	2c766373          	csrrsi	t1,0x2c7,12
 10003d2:	6c70                	ld	a2,216(s0)
 10003d4:	6369                	lui	t1,0x1a
 10003d6:	0030                	addi	a2,sp,8
 10003d8:	0000                	unimp
 10003da:	0300                	addi	s0,sp,384
 10003dc:	0000                	unimp
 10003de:	0000                	unimp
 10003e0:	0000                	unimp
 10003e2:	a000                	fsd	fs0,0(s0)
 10003e4:	0000                	unimp
 10003e6:	0300                	addi	s0,sp,384
 10003e8:	0000                	unimp
 10003ea:	1000                	addi	s0,sp,32
 10003ec:	0000                	unimp
 10003ee:	c400                	sw	s0,8(s0)
 10003f0:	0000                	unimp
 10003f2:	0100                	addi	s0,sp,128
 10003f4:	0000                	unimp
 10003f6:	0b00                	addi	s0,sp,400
 10003f8:	0000                	unimp
 10003fa:	0100                	addi	s0,sp,128
 10003fc:	0000                	unimp
 10003fe:	0900                	addi	s0,sp,144
 1000400:	0000                	unimp
 1000402:	0300                	addi	s0,sp,384
 1000404:	0000                	unimp
 1000406:	1000                	addi	s0,sp,32
 1000408:	0000                	unimp
 100040a:	4400                	lw	s0,8(s0)
 100040c:	0000                	unimp
 100040e:	0000                	unimp
 1000410:	000c                	0xc
 1000412:	0000                	unimp
 1000414:	0000                	unimp
 1000416:	0000                	unimp
 1000418:	0004                	0x4
 100041a:	0000                	unimp
 100041c:	0000                	unimp
 100041e:	0300                	addi	s0,sp,384
 1000420:	0000                	unimp
 1000422:	0400                	addi	s0,sp,512
 1000424:	0000                	unimp
 1000426:	e200                	sd	s0,0(a2)
 1000428:	0000                	unimp
 100042a:	0700                	addi	s0,sp,896
 100042c:	0000                	unimp
 100042e:	0300                	addi	s0,sp,384
 1000430:	0000                	unimp
 1000432:	0400                	addi	s0,sp,512
 1000434:	0000                	unimp
 1000436:	f500                	sd	s0,40(a0)
 1000438:	0000                	unimp
 100043a:	ff00                	sd	s0,56(a4)
 100043c:	0000                	unimp
 100043e:	0300                	addi	s0,sp,384
 1000440:	0000                	unimp
 1000442:	0400                	addi	s0,sp,512
 1000444:	0000                	unimp
 1000446:	b500                	fsd	fs0,40(a0)
 1000448:	0000                	unimp
 100044a:	0200                	addi	s0,sp,256
 100044c:	0000                	unimp
 100044e:	0200                	addi	s0,sp,256
 1000450:	0000                	unimp
 1000452:	0100                	addi	s0,sp,128
 1000454:	6564                	ld	s1,200(a0)
 1000456:	7562                	ld	a0,56(sp)
 1000458:	6f632d67          	0x6f632d67
 100045c:	746e                	ld	s0,248(sp)
 100045e:	6f72                	ld	t5,280(sp)
 1000460:	6c6c                	ld	a1,216(s0)
 1000462:	7265                	lui	tp,0xffff9
 1000464:	3040                	fld	fs0,160(s0)
 1000466:	0000                	unimp
 1000468:	0000                	unimp
 100046a:	0300                	addi	s0,sp,384
 100046c:	0000                	unimp
 100046e:	1000                	addi	s0,sp,32
 1000470:	0000                	unimp
 1000472:	1b00                	addi	s0,sp,432
 1000474:	6972                	ld	s2,280(sp)
 1000476:	2c766373          	csrrsi	t1,0x2c7,12
 100047a:	6564                	ld	s1,200(a0)
 100047c:	7562                	ld	a0,56(sp)
 100047e:	31302d67          	0x31302d67
 1000482:	00000033          	add	zero,zero,zero
 1000486:	0300                	addi	s0,sp,384
 1000488:	0000                	unimp
 100048a:	0800                	addi	s0,sp,16
 100048c:	0000                	unimp
 100048e:	c400                	sw	s0,8(s0)
 1000490:	0000                	unimp
 1000492:	0100                	addi	s0,sp,128
 1000494:	0000                	unimp
 1000496:	ffff                	0xffff
 1000498:	0000                	unimp
 100049a:	0300                	addi	s0,sp,384
 100049c:	0000                	unimp
 100049e:	1000                	addi	s0,sp,32
 10004a0:	0000                	unimp
 10004a2:	4400                	lw	s0,8(s0)
	...
 10004b0:	0000                	unimp
 10004b2:	0010                	0x10
 10004b4:	0000                	unimp
 10004b6:	0300                	addi	s0,sp,384
 10004b8:	0000                	unimp
 10004ba:	0800                	addi	s0,sp,16
 10004bc:	0000                	unimp
 10004be:	d800                	sw	s0,48(s0)
 10004c0:	746e6f63          	bltu	t3,t1,1000c1e <bin_to_hex_table+0x2c6>
 10004c4:	6f72                	ld	t5,280(sp)
 10004c6:	006c                	addi	a1,sp,12
 10004c8:	0000                	unimp
 10004ca:	0200                	addi	s0,sp,256
 10004cc:	0000                	unimp
 10004ce:	0100                	addi	s0,sp,128
 10004d0:	6175                	addi	sp,sp,368
 10004d2:	7472                	ld	s0,312(sp)
 10004d4:	3440                	fld	fs0,168(s0)
 10004d6:	3030                	fld	fa2,96(s0)
 10004d8:	3030                	fld	fa2,96(s0)
 10004da:	3030                	fld	fa2,96(s0)
 10004dc:	0030                	addi	a2,sp,8
 10004de:	0000                	unimp
 10004e0:	0000                	unimp
 10004e2:	0300                	addi	s0,sp,384
 10004e4:	0000                	unimp
 10004e6:	0800                	addi	s0,sp,16
 10004e8:	0000                	unimp
 10004ea:	1b00                	addi	s0,sp,432
 10004ec:	736e                	ld	t1,248(sp)
 10004ee:	3631                	addiw	a2,a2,-20
 10004f0:	3535                	addiw	a0,a0,-19
 10004f2:	0030                	addi	a2,sp,8
 10004f4:	0000                	unimp
 10004f6:	0300                	addi	s0,sp,384
 10004f8:	0000                	unimp
 10004fa:	1000                	addi	s0,sp,32
 10004fc:	0000                	unimp
 10004fe:	4400                	lw	s0,8(s0)
 1000500:	0000                	unimp
 1000502:	0000                	unimp
 1000504:	0040                	addi	s0,sp,4
	...
 100050e:	0010                	0x10
 1000510:	0000                	unimp
 1000512:	0300                	addi	s0,sp,384
 1000514:	0000                	unimp
 1000516:	0400                	addi	s0,sp,512
 1000518:	0000                	unimp
 100051a:	6200                	ld	s0,0(a2)
 100051c:	fa02                	sd	zero,304(sp)
 100051e:	80f0                	0x80f0
 1000520:	0000                	unimp
 1000522:	0300                	addi	s0,sp,384
 1000524:	0000                	unimp
 1000526:	0400                	addi	s0,sp,512
 1000528:	0000                	unimp
 100052a:	0001                	nop
 100052c:	0100                	addi	s0,sp,128
 100052e:	00c2                	slli	ra,ra,0x10
 1000530:	0000                	unimp
 1000532:	0300                	addi	s0,sp,384
 1000534:	0000                	unimp
 1000536:	0400                	addi	s0,sp,512
 1000538:	0000                	unimp
 100053a:	0e01                	addi	t3,t3,0
 100053c:	0000                	unimp
 100053e:	0200                	addi	s0,sp,256
 1000540:	0000                	unimp
 1000542:	0300                	addi	s0,sp,384
 1000544:	0000                	unimp
 1000546:	0400                	addi	s0,sp,512
 1000548:	0000                	unimp
 100054a:	1f01                	addi	t5,t5,-32
 100054c:	0000                	unimp
 100054e:	0200                	addi	s0,sp,256
 1000550:	0000                	unimp
 1000552:	0300                	addi	s0,sp,384
 1000554:	0000                	unimp
 1000556:	0400                	addi	s0,sp,512
 1000558:	0000                	unimp
 100055a:	2a01                	sext.w	s4,s4
 100055c:	0000                	unimp
 100055e:	0200                	addi	s0,sp,256
 1000560:	0000                	unimp
 1000562:	0300                	addi	s0,sp,384
 1000564:	0000                	unimp
 1000566:	0400                	addi	s0,sp,512
 1000568:	0000                	unimp
 100056a:	3401                	addiw	s0,s0,-32
 100056c:	0000                	unimp
 100056e:	0400                	addi	s0,sp,512
 1000570:	0000                	unimp
 1000572:	0200                	addi	s0,sp,256
 1000574:	0000                	unimp
 1000576:	0100                	addi	s0,sp,128
 1000578:	6974                	ld	a3,208(a0)
 100057a:	656d                	lui	a0,0x1b
 100057c:	4072                	0x4072
 100057e:	3831                	addiw	a6,a6,-20
 1000580:	3030                	fld	fa2,96(s0)
 1000582:	3030                	fld	fa2,96(s0)
 1000584:	3030                	fld	fa2,96(s0)
 1000586:	0000                	unimp
 1000588:	0000                	unimp
 100058a:	0300                	addi	s0,sp,384
 100058c:	0000                	unimp
 100058e:	0f00                	addi	s0,sp,912
 1000590:	0000                	unimp
 1000592:	1b00                	addi	s0,sp,432
 1000594:	7570                	ld	a2,232(a0)
 1000596:	706c                	ld	a1,224(s0)
 1000598:	612c                	ld	a1,64(a0)
 100059a:	6270                	ld	a2,192(a2)
 100059c:	745f 6d69 7265      	0x72656d69745f
 10005a2:	0000                	unimp
 10005a4:	0000                	unimp
 10005a6:	0300                	addi	s0,sp,384
 10005a8:	0000                	unimp
 10005aa:	1000                	addi	s0,sp,32
 10005ac:	0000                	unimp
 10005ae:	1f01                	addi	t5,t5,-32
 10005b0:	0000                	unimp
 10005b2:	0400                	addi	s0,sp,512
 10005b4:	0000                	unimp
 10005b6:	0500                	addi	s0,sp,640
 10005b8:	0000                	unimp
 10005ba:	0600                	addi	s0,sp,768
 10005bc:	0000                	unimp
 10005be:	0700                	addi	s0,sp,896
 10005c0:	0000                	unimp
 10005c2:	0300                	addi	s0,sp,384
 10005c4:	0000                	unimp
 10005c6:	1000                	addi	s0,sp,32
 10005c8:	0000                	unimp
 10005ca:	4400                	lw	s0,8(s0)
 10005cc:	0000                	unimp
 10005ce:	0000                	unimp
 10005d0:	0018                	0x18
	...
 10005da:	0010                	0x10
 10005dc:	0000                	unimp
 10005de:	0300                	addi	s0,sp,384
 10005e0:	0000                	unimp
 10005e2:	0400                	addi	s0,sp,512
 10005e4:	0000                	unimp
 10005e6:	0e01                	addi	t3,t3,0
 10005e8:	0000                	unimp
 10005ea:	0200                	addi	s0,sp,256
 10005ec:	0000                	unimp
 10005ee:	0300                	addi	s0,sp,384
 10005f0:	0000                	unimp
 10005f2:	0800                	addi	s0,sp,16
 10005f4:	0000                	unimp
 10005f6:	d800                	sw	s0,48(s0)
 10005f8:	746e6f63          	bltu	t3,t1,1000d56 <bin_to_hex_table+0x3fe>
 10005fc:	6f72                	ld	t5,280(sp)
 10005fe:	006c                	addi	a1,sp,12
 1000600:	0000                	unimp
 1000602:	0200                	addi	s0,sp,256
 1000604:	0000                	unimp
 1000606:	0200                	addi	s0,sp,256
 1000608:	0000                	unimp
 100060a:	0200                	addi	s0,sp,256
 100060c:	0000                	unimp
 100060e:	0900                	addi	s0,sp,144
 1000610:	64646123          	0x64646123
 1000614:	6572                	ld	a0,280(sp)
 1000616:	632d7373          	csrrci	t1,0x632,26
 100061a:	6c65                	lui	s8,0x19
 100061c:	736c                	ld	a1,224(a4)
 100061e:	2300                	fld	fs0,0(a4)
 1000620:	657a6973          	csrrsi	s2,0x657,20
 1000624:	632d                	lui	t1,0xb
 1000626:	6c65                	lui	s8,0x19
 1000628:	736c                	ld	a1,224(a4)
 100062a:	6300                	ld	s0,0(a4)
 100062c:	61706d6f          	jal	s10,1007442 <bin_to_hex_table+0x6aea>
 1000630:	6974                	ld	a3,208(a0)
 1000632:	6c62                	ld	s8,24(sp)
 1000634:	0065                	c.addi	zero,25
 1000636:	6f6d                	lui	t5,0x1b
 1000638:	6564                	ld	s1,200(a0)
 100063a:	006c                	addi	a1,sp,12
 100063c:	6f647473          	csrrci	s0,0x6f6,8
 1000640:	7475                	lui	s0,0xffffd
 1000642:	702d                	0x702d
 1000644:	7461                	lui	s0,0xffff8
 1000646:	0068                	addi	a0,sp,12
 1000648:	6564                	ld	s1,200(a0)
 100064a:	6976                	ld	s2,344(sp)
 100064c:	745f6563          	bltu	t5,t0,1000d96 <bin_to_hex_table+0x43e>
 1000650:	7079                	0x7079
 1000652:	0065                	c.addi	zero,25
 1000654:	6572                	ld	a0,280(sp)
 1000656:	69740067          	jr	1687(s0) # ffffffffffff8697 <bin_to_hex_table+0xfffffffffeff7d3f>
 100065a:	656d                	lui	a0,0x1b
 100065c:	6162                	ld	sp,24(sp)
 100065e:	662d6573          	csrrsi	a0,0x662,26
 1000662:	6572                	ld	a0,280(sp)
 1000664:	7571                	lui	a0,0xffffc
 1000666:	6e65                	lui	t3,0x19
 1000668:	73007963          	bleu	a6,zero,1000d9a <bin_to_hex_table+0x442>
 100066c:	6174                	ld	a3,192(a0)
 100066e:	7574                	ld	a3,232(a0)
 1000670:	6c630073          	0x6c630073
 1000674:	2d6b636f          	jal	t1,10b694a <bin_to_hex_table+0xb5ff2>
 1000678:	7266                	ld	tp,120(sp)
 100067a:	7165                	addi	sp,sp,-400
 100067c:	6575                	lui	a0,0x1d
 100067e:	636e                	ld	t1,216(sp)
 1000680:	0079                	c.addi	zero,30
 1000682:	6972                	ld	s2,280(sp)
 1000684:	2c766373          	csrrsi	t1,0x2c7,12
 1000688:	7369                	lui	t1,0xffffa
 100068a:	0061                	c.addi	zero,24
 100068c:	6d6d                	lui	s10,0x1b
 100068e:	2d75                	addiw	s10,s10,29
 1000690:	7974                	ld	a3,240(a0)
 1000692:	6570                	ld	a2,200(a0)
 1000694:	7400                	ld	s0,40(s0)
 1000696:	626c                	ld	a1,192(a2)
 1000698:	732d                	lui	t1,0xfffeb
 100069a:	6c70                	ld	a2,216(s0)
 100069c:	7469                	lui	s0,0xffffa
 100069e:	2300                	fld	fs0,0(a4)
 10006a0:	6e69                	lui	t3,0x1a
 10006a2:	6574                	ld	a3,200(a0)
 10006a4:	7272                	ld	tp,312(sp)
 10006a6:	7075                	0x7075
 10006a8:	2d74                	fld	fa3,216(a0)
 10006aa:	6c6c6563          	bltu	s8,t1,1000d74 <bin_to_hex_table+0x41c>
 10006ae:	6e690073          	0x6e690073
 10006b2:	6574                	ld	a3,200(a0)
 10006b4:	7272                	ld	tp,312(sp)
 10006b6:	7075                	0x7075
 10006b8:	2d74                	fld	fa3,216(a0)
 10006ba:	746e6f63          	bltu	t3,t1,1000e18 <bin_to_hex_table+0x4c0>
 10006be:	6f72                	ld	t5,280(sp)
 10006c0:	6c6c                	ld	a1,216(s0)
 10006c2:	7265                	lui	tp,0xffff9
 10006c4:	7000                	ld	s0,32(s0)
 10006c6:	6168                	ld	a0,192(a0)
 10006c8:	646e                	ld	s0,216(sp)
 10006ca:	656c                	ld	a1,200(a0)
 10006cc:	7200                	ld	s0,32(a2)
 10006ce:	6e61                	lui	t3,0x18
 10006d0:	00736567          	0x736567
 10006d4:	6e69                	lui	t3,0x1a
 10006d6:	6574                	ld	a3,200(a0)
 10006d8:	7272                	ld	tp,312(sp)
 10006da:	7075                	0x7075
 10006dc:	7374                	ld	a3,224(a4)
 10006de:	652d                	lui	a0,0xb
 10006e0:	7478                	ld	a4,232(s0)
 10006e2:	6e65                	lui	t3,0x19
 10006e4:	6564                	ld	s1,200(a0)
 10006e6:	0064                	addi	s1,sp,12
 10006e8:	6572                	ld	a0,280(sp)
 10006ea:	616e2d67          	0x616e2d67
 10006ee:	656d                	lui	a0,0x1b
 10006f0:	69720073          	0x69720073
 10006f4:	2c766373          	csrrsi	t1,0x2c7,12
 10006f8:	616d                	addi	sp,sp,240
 10006fa:	2d78                	fld	fa4,216(a0)
 10006fc:	7270                	ld	a2,224(a2)
 10006fe:	6f69                	lui	t5,0x1a
 1000700:	6972                	ld	s2,280(sp)
 1000702:	7974                	ld	a3,240(a0)
 1000704:	7200                	ld	s0,32(a2)
 1000706:	7369                	lui	t1,0xffffa
 1000708:	6e2c7663          	bleu	sp,s8,1000df4 <bin_to_hex_table+0x49c>
 100070c:	6564                	ld	s1,200(a0)
 100070e:	0076                	0x76
 1000710:	72727563          	bleu	t2,tp,1000e3a <bin_to_hex_table+0x4e2>
 1000714:	6e65                	lui	t3,0x19
 1000716:	2d74                	fld	fa3,216(a0)
 1000718:	65657073          	csrci	0x656,10
 100071c:	0064                	addi	s1,sp,12
 100071e:	6e69                	lui	t3,0x1a
 1000720:	6574                	ld	a3,200(a0)
 1000722:	7272                	ld	tp,312(sp)
 1000724:	7075                	0x7075
 1000726:	2d74                	fld	fa3,216(a0)
 1000728:	6170                	ld	a2,192(a0)
 100072a:	6572                	ld	a0,280(sp)
 100072c:	746e                	ld	s0,248(sp)
 100072e:	6900                	ld	s0,16(a0)
 1000730:	746e                	ld	s0,248(sp)
 1000732:	7265                	lui	tp,0xffff9
 1000734:	7572                	ld	a0,312(sp)
 1000736:	7470                	ld	a2,232(s0)
 1000738:	65720073          	0x65720073
 100073c:	68732d67          	0x68732d67
 1000740:	6669                	lui	a2,0x1a
 1000742:	0074                	addi	a3,sp,12
 1000744:	6572                	ld	a0,280(sp)
 1000746:	6f692d67          	0x6f692d67
 100074a:	772d                	lui	a4,0xfffeb
 100074c:	6469                	lui	s0,0x1a
 100074e:	6874                	ld	a3,208(s0)
 1000750:	0000                	unimp
	...

0000000001000754 <handle_trap>:
 1000754:	00008067          	ret

0000000001000758 <write_reg_u8>:
 1000758:	00b50023          	sb	a1,0(a0) # 1b000 <_start-0xfe5000>
 100075c:	00008067          	ret

0000000001000760 <read_reg_u8>:
 1000760:	00054503          	lbu	a0,0(a0)
 1000764:	00008067          	ret

0000000001000768 <is_transmit_empty>:
 1000768:	400007b7          	lui	a5,0x40000
 100076c:	0147c503          	lbu	a0,20(a5) # 40000014 <bin_to_hex_table+0x3efff6bc>
 1000770:	02057513          	andi	a0,a0,32
 1000774:	00008067          	ret

0000000001000778 <write_serial>:
 1000778:	40000737          	lui	a4,0x40000
 100077c:	01474783          	lbu	a5,20(a4) # 40000014 <bin_to_hex_table+0x3efff6bc>
 1000780:	0207f793          	andi	a5,a5,32
 1000784:	fe078ce3          	beqz	a5,100077c <write_serial+0x4>
 1000788:	00a70023          	sb	a0,0(a4)
 100078c:	00008067          	ret

0000000001000790 <init_uart>:
 1000790:	0045959b          	slliw	a1,a1,0x4
 1000794:	02b5553b          	divuw	a0,a0,a1
 1000798:	400007b7          	lui	a5,0x40000
 100079c:	00078223          	sb	zero,4(a5) # 40000004 <bin_to_hex_table+0x3efff6ac>
 10007a0:	f8000713          	li	a4,-128
 10007a4:	00e78623          	sb	a4,12(a5)
 10007a8:	0ff57713          	andi	a4,a0,255
 10007ac:	0085551b          	srliw	a0,a0,0x8
 10007b0:	00e78023          	sb	a4,0(a5)
 10007b4:	0ff57513          	andi	a0,a0,255
 10007b8:	00a78223          	sb	a0,4(a5)
 10007bc:	00300713          	li	a4,3
 10007c0:	00e78623          	sb	a4,12(a5)
 10007c4:	fc700713          	li	a4,-57
 10007c8:	00e78423          	sb	a4,8(a5)
 10007cc:	02000713          	li	a4,32
 10007d0:	00e78823          	sb	a4,16(a5)
 10007d4:	00008067          	ret

00000000010007d8 <print_uart>:
 10007d8:	ff010113          	addi	sp,sp,-16
 10007dc:	00813023          	sd	s0,0(sp)
 10007e0:	00113423          	sd	ra,8(sp)
 10007e4:	00050413          	mv	s0,a0
 10007e8:	00044503          	lbu	a0,0(s0) # 1a000 <_start-0xfe6000>
 10007ec:	00051a63          	bnez	a0,1000800 <print_uart+0x28>
 10007f0:	00813083          	ld	ra,8(sp)
 10007f4:	00013403          	ld	s0,0(sp)
 10007f8:	01010113          	addi	sp,sp,16
 10007fc:	00008067          	ret
 1000800:	f79ff0ef          	jal	ra,1000778 <write_serial>
 1000804:	00140413          	addi	s0,s0,1
 1000808:	fe1ff06f          	j	10007e8 <print_uart+0x10>

000000000100080c <bin_to_hex>:
 100080c:	00000797          	auipc	a5,0x0
 1000810:	14c78793          	addi	a5,a5,332 # 1000958 <bin_to_hex_table>
 1000814:	00f57713          	andi	a4,a0,15
 1000818:	00e78733          	add	a4,a5,a4
 100081c:	00074703          	lbu	a4,0(a4)
 1000820:	00455513          	srli	a0,a0,0x4
 1000824:	00a787b3          	add	a5,a5,a0
 1000828:	00e580a3          	sb	a4,1(a1)
 100082c:	0007c783          	lbu	a5,0(a5)
 1000830:	00f58023          	sb	a5,0(a1)
 1000834:	00008067          	ret

0000000001000838 <print_uart_int>:
 1000838:	fd010113          	addi	sp,sp,-48
 100083c:	02813023          	sd	s0,32(sp)
 1000840:	00913c23          	sd	s1,24(sp)
 1000844:	01213823          	sd	s2,16(sp)
 1000848:	02113423          	sd	ra,40(sp)
 100084c:	00050913          	mv	s2,a0
 1000850:	01800413          	li	s0,24
 1000854:	ff800493          	li	s1,-8
 1000858:	0089553b          	srlw	a0,s2,s0
 100085c:	00810593          	addi	a1,sp,8
 1000860:	0ff57513          	andi	a0,a0,255
 1000864:	fa9ff0ef          	jal	ra,100080c <bin_to_hex>
 1000868:	00814503          	lbu	a0,8(sp)
 100086c:	ff84041b          	addiw	s0,s0,-8
 1000870:	f09ff0ef          	jal	ra,1000778 <write_serial>
 1000874:	00914503          	lbu	a0,9(sp)
 1000878:	f01ff0ef          	jal	ra,1000778 <write_serial>
 100087c:	fc941ee3          	bne	s0,s1,1000858 <print_uart_int+0x20>
 1000880:	02813083          	ld	ra,40(sp)
 1000884:	02013403          	ld	s0,32(sp)
 1000888:	01813483          	ld	s1,24(sp)
 100088c:	01013903          	ld	s2,16(sp)
 1000890:	03010113          	addi	sp,sp,48
 1000894:	00008067          	ret

0000000001000898 <print_uart_addr>:
 1000898:	fd010113          	addi	sp,sp,-48
 100089c:	02813023          	sd	s0,32(sp)
 10008a0:	00913c23          	sd	s1,24(sp)
 10008a4:	01213823          	sd	s2,16(sp)
 10008a8:	02113423          	sd	ra,40(sp)
 10008ac:	00050913          	mv	s2,a0
 10008b0:	03800413          	li	s0,56
 10008b4:	ff800493          	li	s1,-8
 10008b8:	00895533          	srl	a0,s2,s0
 10008bc:	00810593          	addi	a1,sp,8
 10008c0:	0ff57513          	andi	a0,a0,255
 10008c4:	f49ff0ef          	jal	ra,100080c <bin_to_hex>
 10008c8:	00814503          	lbu	a0,8(sp)
 10008cc:	ff84041b          	addiw	s0,s0,-8
 10008d0:	ea9ff0ef          	jal	ra,1000778 <write_serial>
 10008d4:	00914503          	lbu	a0,9(sp)
 10008d8:	ea1ff0ef          	jal	ra,1000778 <write_serial>
 10008dc:	fc941ee3          	bne	s0,s1,10008b8 <print_uart_addr+0x20>
 10008e0:	02813083          	ld	ra,40(sp)
 10008e4:	02013403          	ld	s0,32(sp)
 10008e8:	01813483          	ld	s1,24(sp)
 10008ec:	01013903          	ld	s2,16(sp)
 10008f0:	03010113          	addi	sp,sp,48
 10008f4:	00008067          	ret

00000000010008f8 <print_uart_byte>:
 10008f8:	fe010113          	addi	sp,sp,-32
 10008fc:	00810593          	addi	a1,sp,8
 1000900:	00113c23          	sd	ra,24(sp)
 1000904:	f09ff0ef          	jal	ra,100080c <bin_to_hex>
 1000908:	00814503          	lbu	a0,8(sp)
 100090c:	e6dff0ef          	jal	ra,1000778 <write_serial>
 1000910:	00914503          	lbu	a0,9(sp)
 1000914:	e65ff0ef          	jal	ra,1000778 <write_serial>
 1000918:	01813083          	ld	ra,24(sp)
 100091c:	02010113          	addi	sp,sp,32
 1000920:	00008067          	ret

Disassembly of section .text.startup:

0000000001000924 <main>:
 1000924:	f1402573          	csrr	a0,mhartid
 1000928:	fffff597          	auipc	a1,0xfffff
 100092c:	70858593          	addi	a1,a1,1800 # 1000030 <device_tree>
 1000930:	104047b7          	lui	a5,0x10404
 1000934:	00100713          	li	a4,1
 1000938:	10500073          	wfi
 100093c:	0247a683          	lw	a3,36(a5) # 10404024 <bin_to_hex_table+0xf4036cc>
 1000940:	fee69ce3          	bne	a3,a4,1000938 <main+0x14>
 1000944:	0207a223          	sw	zero,36(a5)
 1000948:	10404537          	lui	a0,0x10404
 100094c:	00056283          	lwu	t0,0(a0) # 10404000 <bin_to_hex_table+0xf4036a8>
 1000950:	00028067          	jr	t0
 1000954:	fe5ff06f          	j	1000938 <main+0x14>
