
serial_link.riscv:     formato del file elf64-littleriscv


Disassemblamento della sezione .text.init:

0000000080000000 <_start>:
    80000000:	4081                	li	ra,0
    80000002:	4101                	li	sp,0
    80000004:	4181                	li	gp,0
    80000006:	4201                	li	tp,0
    80000008:	4281                	li	t0,0
    8000000a:	4301                	li	t1,0
    8000000c:	4381                	li	t2,0
    8000000e:	4401                	li	s0,0
    80000010:	4481                	li	s1,0
    80000012:	4501                	li	a0,0
    80000014:	4581                	li	a1,0
    80000016:	4601                	li	a2,0
    80000018:	4681                	li	a3,0
    8000001a:	4701                	li	a4,0
    8000001c:	4781                	li	a5,0
    8000001e:	4801                	li	a6,0
    80000020:	4881                	li	a7,0
    80000022:	4901                	li	s2,0
    80000024:	4981                	li	s3,0
    80000026:	4a01                	li	s4,0
    80000028:	4a81                	li	s5,0
    8000002a:	4b01                	li	s6,0
    8000002c:	4b81                	li	s7,0
    8000002e:	4c01                	li	s8,0
    80000030:	4c81                	li	s9,0
    80000032:	4d01                	li	s10,0
    80000034:	4d81                	li	s11,0
    80000036:	4e01                	li	t3,0
    80000038:	4e81                	li	t4,0
    8000003a:	4f01                	li	t5,0
    8000003c:	4f81                	li	t6,0
    8000003e:	62f9                	lui	t0,0x1e
    80000040:	3002a073          	csrs	mstatus,t0
    80000044:	4285                	li	t0,1
    80000046:	02fe                	slli	t0,t0,0x1f
    80000048:	0002d863          	bgez	t0,80000058 <_start+0x58>
    8000004c:	4505                	li	a0,1
    8000004e:	00001297          	auipc	t0,0x1
    80000052:	faa2a923          	sw	a0,-78(t0) # 80001000 <tohost>
    80000056:	bfdd                	j	8000004c <_start+0x4c>
    80000058:	00000297          	auipc	t0,0x0
    8000005c:	09028293          	addi	t0,t0,144 # 800000e8 <_start+0xe8>
    80000060:	30529073          	csrw	mtvec,t0
    80000064:	00301073          	fssr	zero
    80000068:	f0000053          	fmv.w.x	ft0,zero
    8000006c:	f00000d3          	fmv.w.x	ft1,zero
    80000070:	f0000153          	fmv.w.x	ft2,zero
    80000074:	f00001d3          	fmv.w.x	ft3,zero
    80000078:	f0000253          	fmv.w.x	ft4,zero
    8000007c:	f00002d3          	fmv.w.x	ft5,zero
    80000080:	f0000353          	fmv.w.x	ft6,zero
    80000084:	f00003d3          	fmv.w.x	ft7,zero
    80000088:	f0000453          	fmv.w.x	fs0,zero
    8000008c:	f00004d3          	fmv.w.x	fs1,zero
    80000090:	f0000553          	fmv.w.x	fa0,zero
    80000094:	f00005d3          	fmv.w.x	fa1,zero
    80000098:	f0000653          	fmv.w.x	fa2,zero
    8000009c:	f00006d3          	fmv.w.x	fa3,zero
    800000a0:	f0000753          	fmv.w.x	fa4,zero
    800000a4:	f00007d3          	fmv.w.x	fa5,zero
    800000a8:	f0000853          	fmv.w.x	fa6,zero
    800000ac:	f00008d3          	fmv.w.x	fa7,zero
    800000b0:	f0000953          	fmv.w.x	fs2,zero
    800000b4:	f00009d3          	fmv.w.x	fs3,zero
    800000b8:	f0000a53          	fmv.w.x	fs4,zero
    800000bc:	f0000ad3          	fmv.w.x	fs5,zero
    800000c0:	f0000b53          	fmv.w.x	fs6,zero
    800000c4:	f0000bd3          	fmv.w.x	fs7,zero
    800000c8:	f0000c53          	fmv.w.x	fs8,zero
    800000cc:	f0000cd3          	fmv.w.x	fs9,zero
    800000d0:	f0000d53          	fmv.w.x	fs10,zero
    800000d4:	f0000dd3          	fmv.w.x	fs11,zero
    800000d8:	f0000e53          	fmv.w.x	ft8,zero
    800000dc:	f0000ed3          	fmv.w.x	ft9,zero
    800000e0:	f0000f53          	fmv.w.x	ft10,zero
    800000e4:	f0000fd3          	fmv.w.x	ft11,zero
    800000e8:	00000297          	auipc	t0,0x0
    800000ec:	03828293          	addi	t0,t0,56 # 80000120 <trap_entry>
    800000f0:	30529073          	csrw	mtvec,t0
    800000f4:	00007197          	auipc	gp,0x7
    800000f8:	92418193          	addi	gp,gp,-1756 # 80006a18 <__global_pointer$>
    800000fc:	85f18213          	addi	tp,gp,-1953 # 80006277 <_end+0x3f>
    80000100:	fc027213          	andi	tp,tp,-64
    80000104:	f1402573          	csrr	a0,mhartid
    80000108:	4585                	li	a1,1
    8000010a:	00b57063          	bleu	a1,a0,8000010a <_start+0x10a>
    8000010e:	01151613          	slli	a2,a0,0x11
    80000112:	9232                	add	tp,tp,a2
    80000114:	00150113          	addi	sp,a0,1
    80000118:	0146                	slli	sp,sp,0x11
    8000011a:	9112                	add	sp,sp,tp
    8000011c:	46c0106f          	j	80001588 <_init>

0000000080000120 <trap_entry>:
    80000120:	716d                	addi	sp,sp,-272
    80000122:	e406                	sd	ra,8(sp)
    80000124:	e80a                	sd	sp,16(sp)
    80000126:	ec0e                	sd	gp,24(sp)
    80000128:	f012                	sd	tp,32(sp)
    8000012a:	f416                	sd	t0,40(sp)
    8000012c:	f81a                	sd	t1,48(sp)
    8000012e:	fc1e                	sd	t2,56(sp)
    80000130:	e0a2                	sd	s0,64(sp)
    80000132:	e4a6                	sd	s1,72(sp)
    80000134:	e8aa                	sd	a0,80(sp)
    80000136:	ecae                	sd	a1,88(sp)
    80000138:	f0b2                	sd	a2,96(sp)
    8000013a:	f4b6                	sd	a3,104(sp)
    8000013c:	f8ba                	sd	a4,112(sp)
    8000013e:	fcbe                	sd	a5,120(sp)
    80000140:	e142                	sd	a6,128(sp)
    80000142:	e546                	sd	a7,136(sp)
    80000144:	e94a                	sd	s2,144(sp)
    80000146:	ed4e                	sd	s3,152(sp)
    80000148:	f152                	sd	s4,160(sp)
    8000014a:	f556                	sd	s5,168(sp)
    8000014c:	f95a                	sd	s6,176(sp)
    8000014e:	fd5e                	sd	s7,184(sp)
    80000150:	e1e2                	sd	s8,192(sp)
    80000152:	e5e6                	sd	s9,200(sp)
    80000154:	e9ea                	sd	s10,208(sp)
    80000156:	edee                	sd	s11,216(sp)
    80000158:	f1f2                	sd	t3,224(sp)
    8000015a:	f5f6                	sd	t4,232(sp)
    8000015c:	f9fa                	sd	t5,240(sp)
    8000015e:	fdfe                	sd	t6,248(sp)
    80000160:	34202573          	csrr	a0,mcause
    80000164:	341025f3          	csrr	a1,mepc
    80000168:	860a                	mv	a2,sp
    8000016a:	25c010ef          	jal	ra,800013c6 <handle_trap>
    8000016e:	34151073          	csrw	mepc,a0
    80000172:	000022b7          	lui	t0,0x2
    80000176:	8002829b          	addiw	t0,t0,-2048
    8000017a:	3002a073          	csrs	mstatus,t0
    8000017e:	60a2                	ld	ra,8(sp)
    80000180:	6142                	ld	sp,16(sp)
    80000182:	61e2                	ld	gp,24(sp)
    80000184:	7202                	ld	tp,32(sp)
    80000186:	72a2                	ld	t0,40(sp)
    80000188:	7342                	ld	t1,48(sp)
    8000018a:	73e2                	ld	t2,56(sp)
    8000018c:	6406                	ld	s0,64(sp)
    8000018e:	64a6                	ld	s1,72(sp)
    80000190:	6546                	ld	a0,80(sp)
    80000192:	65e6                	ld	a1,88(sp)
    80000194:	7606                	ld	a2,96(sp)
    80000196:	76a6                	ld	a3,104(sp)
    80000198:	7746                	ld	a4,112(sp)
    8000019a:	77e6                	ld	a5,120(sp)
    8000019c:	680a                	ld	a6,128(sp)
    8000019e:	68aa                	ld	a7,136(sp)
    800001a0:	694a                	ld	s2,144(sp)
    800001a2:	69ea                	ld	s3,152(sp)
    800001a4:	7a0a                	ld	s4,160(sp)
    800001a6:	7aaa                	ld	s5,168(sp)
    800001a8:	7b4a                	ld	s6,176(sp)
    800001aa:	7bea                	ld	s7,184(sp)
    800001ac:	6c0e                	ld	s8,192(sp)
    800001ae:	6cae                	ld	s9,200(sp)
    800001b0:	6d4e                	ld	s10,208(sp)
    800001b2:	6dee                	ld	s11,216(sp)
    800001b4:	7e0e                	ld	t3,224(sp)
    800001b6:	7eae                	ld	t4,232(sp)
    800001b8:	7f4e                	ld	t5,240(sp)
    800001ba:	7fee                	ld	t6,248(sp)
    800001bc:	6151                	addi	sp,sp,272
    800001be:	30200073          	mret

Disassemblamento della sezione .text:

0000000080001048 <vprintfmt>:
    80001048:	710d                	addi	sp,sp,-352
    8000104a:	eaa2                	sd	s0,336(sp)
    8000104c:	e6a6                	sd	s1,328(sp)
    8000104e:	e2ca                	sd	s2,320(sp)
    80001050:	fa52                	sd	s4,304(sp)
    80001052:	f656                	sd	s5,296(sp)
    80001054:	f25a                	sd	s6,288(sp)
    80001056:	ee86                	sd	ra,344(sp)
    80001058:	fe4e                	sd	s3,312(sp)
    8000105a:	ee5e                	sd	s7,280(sp)
    8000105c:	ea62                	sd	s8,272(sp)
    8000105e:	e666                	sd	s9,264(sp)
    80001060:	892a                	mv	s2,a0
    80001062:	84ae                	mv	s1,a1
    80001064:	8432                	mv	s0,a2
    80001066:	8b36                	mv	s6,a3
    80001068:	02500a13          	li	s4,37
    8000106c:	00005a97          	auipc	s5,0x5
    80001070:	fb8a8a93          	addi	s5,s5,-72 # 80006024 <main+0xba>
    80001074:	a029                	j	8000107e <vprintfmt+0x36>
    80001076:	c131                	beqz	a0,800010ba <vprintfmt+0x72>
    80001078:	85a6                	mv	a1,s1
    8000107a:	0405                	addi	s0,s0,1
    8000107c:	9902                	jalr	s2
    8000107e:	00044503          	lbu	a0,0(s0)
    80001082:	ff451ae3          	bne	a0,s4,80001076 <vprintfmt+0x2e>
    80001086:	00144683          	lbu	a3,1(s0)
    8000108a:	00140c93          	addi	s9,s0,1
    8000108e:	8766                	mv	a4,s9
    80001090:	02000b93          	li	s7,32
    80001094:	59fd                	li	s3,-1
    80001096:	5c7d                	li	s8,-1
    80001098:	4581                	li	a1,0
    8000109a:	05500613          	li	a2,85
    8000109e:	4525                	li	a0,9
    800010a0:	fdd6879b          	addiw	a5,a3,-35
    800010a4:	0ff7f793          	andi	a5,a5,255
    800010a8:	00170413          	addi	s0,a4,1
    800010ac:	1ef66963          	bltu	a2,a5,8000129e <vprintfmt+0x256>
    800010b0:	078a                	slli	a5,a5,0x2
    800010b2:	97d6                	add	a5,a5,s5
    800010b4:	439c                	lw	a5,0(a5)
    800010b6:	97d6                	add	a5,a5,s5
    800010b8:	8782                	jr	a5
    800010ba:	60f6                	ld	ra,344(sp)
    800010bc:	6456                	ld	s0,336(sp)
    800010be:	64b6                	ld	s1,328(sp)
    800010c0:	6916                	ld	s2,320(sp)
    800010c2:	79f2                	ld	s3,312(sp)
    800010c4:	7a52                	ld	s4,304(sp)
    800010c6:	7ab2                	ld	s5,296(sp)
    800010c8:	7b12                	ld	s6,288(sp)
    800010ca:	6bf2                	ld	s7,280(sp)
    800010cc:	6c52                	ld	s8,272(sp)
    800010ce:	6cb2                	ld	s9,264(sp)
    800010d0:	6135                	addi	sp,sp,352
    800010d2:	8082                	ret
    800010d4:	4721                	li	a4,8
    800010d6:	4785                	li	a5,1
    800010d8:	008b0693          	addi	a3,s6,8
    800010dc:	0eb7d463          	ble	a1,a5,800011c4 <vprintfmt+0x17c>
    800010e0:	000b3783          	ld	a5,0(s6)
    800010e4:	8b36                	mv	s6,a3
    800010e6:	02e7f6b3          	remu	a3,a5,a4
    800010ea:	2b81                	sext.w	s7,s7
    800010ec:	0050                	addi	a2,sp,4
    800010ee:	4985                	li	s3,1
    800010f0:	c036                	sw	a3,0(sp)
    800010f2:	00e7f463          	bleu	a4,a5,800010fa <vprintfmt+0xb2>
    800010f6:	aa55                	j	800012aa <vprintfmt+0x262>
    800010f8:	89e6                	mv	s3,s9
    800010fa:	02e7d7b3          	divu	a5,a5,a4
    800010fe:	0611                	addi	a2,a2,4
    80001100:	00198c9b          	addiw	s9,s3,1
    80001104:	02e7f6b3          	remu	a3,a5,a4
    80001108:	fed62e23          	sw	a3,-4(a2)
    8000110c:	fee7f6e3          	bleu	a4,a5,800010f8 <vprintfmt+0xb0>
    80001110:	018cd963          	ble	s8,s9,80001122 <vprintfmt+0xda>
    80001114:	2c01                	sext.w	s8,s8
    80001116:	3c7d                	addiw	s8,s8,-1
    80001118:	85a6                	mv	a1,s1
    8000111a:	855e                	mv	a0,s7
    8000111c:	9902                	jalr	s2
    8000111e:	ff8ccce3          	blt	s9,s8,80001116 <vprintfmt+0xce>
    80001122:	00299793          	slli	a5,s3,0x2
    80001126:	0218                	addi	a4,sp,256
    80001128:	97ba                	add	a5,a5,a4
    8000112a:	f007a683          	lw	a3,-256(a5)
    8000112e:	fff98b9b          	addiw	s7,s3,-1
    80001132:	0b8a                	slli	s7,s7,0x2
    80001134:	9b8a                	add	s7,s7,sp
    80001136:	4c25                	li	s8,9
    80001138:	a029                	j	80001142 <vprintfmt+0xfa>
    8000113a:	000ba683          	lw	a3,0(s7)
    8000113e:	19fd                	addi	s3,s3,-1
    80001140:	1bf1                	addi	s7,s7,-4
    80001142:	03000513          	li	a0,48
    80001146:	00dc7463          	bleu	a3,s8,8000114e <vprintfmt+0x106>
    8000114a:	05700513          	li	a0,87
    8000114e:	85a6                	mv	a1,s1
    80001150:	9d35                	addw	a0,a0,a3
    80001152:	9902                	jalr	s2
    80001154:	0009879b          	sext.w	a5,s3
    80001158:	fef041e3          	bgtz	a5,8000113a <vprintfmt+0xf2>
    8000115c:	b70d                	j	8000107e <vprintfmt+0x36>
    8000115e:	03000513          	li	a0,48
    80001162:	85a6                	mv	a1,s1
    80001164:	9902                	jalr	s2
    80001166:	85a6                	mv	a1,s1
    80001168:	07800513          	li	a0,120
    8000116c:	9902                	jalr	s2
    8000116e:	008b0693          	addi	a3,s6,8
    80001172:	4741                	li	a4,16
    80001174:	b7b5                	j	800010e0 <vprintfmt+0x98>
    80001176:	000b3c83          	ld	s9,0(s6)
    8000117a:	0b21                	addi	s6,s6,8
    8000117c:	180c8863          	beqz	s9,8000130c <vprintfmt+0x2c4>
    80001180:	15805163          	blez	s8,800012c2 <vprintfmt+0x27a>
    80001184:	02d00793          	li	a5,45
    80001188:	16fb8d63          	beq	s7,a5,80001302 <vprintfmt+0x2ba>
    8000118c:	000c059b          	sext.w	a1,s8
    80001190:	18098963          	beqz	s3,80001322 <vprintfmt+0x2da>
    80001194:	000cc783          	lbu	a5,0(s9)
    80001198:	18078563          	beqz	a5,80001322 <vprintfmt+0x2da>
    8000119c:	001c8793          	addi	a5,s9,1
    800011a0:	013c8633          	add	a2,s9,s3
    800011a4:	1af60363          	beq	a2,a5,8000134a <vprintfmt+0x302>
    800011a8:	00178713          	addi	a4,a5,1
    800011ac:	fff74683          	lbu	a3,-1(a4)
    800011b0:	10068363          	beqz	a3,800012b6 <vprintfmt+0x26e>
    800011b4:	87ba                	mv	a5,a4
    800011b6:	b7fd                	j	800011a4 <vprintfmt+0x15c>
    800011b8:	4785                	li	a5,1
    800011ba:	4729                	li	a4,10
    800011bc:	008b0693          	addi	a3,s6,8
    800011c0:	f2b7c0e3          	blt	a5,a1,800010e0 <vprintfmt+0x98>
    800011c4:	fd91                	bnez	a1,800010e0 <vprintfmt+0x98>
    800011c6:	000b6783          	lwu	a5,0(s6)
    800011ca:	8b36                	mv	s6,a3
    800011cc:	bf29                	j	800010e6 <vprintfmt+0x9e>
    800011ce:	00174683          	lbu	a3,1(a4)
    800011d2:	8722                	mv	a4,s0
    800011d4:	b5f1                	j	800010a0 <vprintfmt+0x58>
    800011d6:	85a6                	mv	a1,s1
    800011d8:	02500513          	li	a0,37
    800011dc:	9902                	jalr	s2
    800011de:	b545                	j	8000107e <vprintfmt+0x36>
    800011e0:	4741                	li	a4,16
    800011e2:	bdd5                	j	800010d6 <vprintfmt+0x8e>
    800011e4:	000b2983          	lw	s3,0(s6)
    800011e8:	00174683          	lbu	a3,1(a4)
    800011ec:	0b21                	addi	s6,s6,8
    800011ee:	8722                	mv	a4,s0
    800011f0:	ea0c58e3          	bgez	s8,800010a0 <vprintfmt+0x58>
    800011f4:	8c4e                	mv	s8,s3
    800011f6:	59fd                	li	s3,-1
    800011f8:	b565                	j	800010a0 <vprintfmt+0x58>
    800011fa:	00174683          	lbu	a3,1(a4)
    800011fe:	02d00b93          	li	s7,45
    80001202:	8722                	mv	a4,s0
    80001204:	bd71                	j	800010a0 <vprintfmt+0x58>
    80001206:	fffc4793          	not	a5,s8
    8000120a:	97fd                	srai	a5,a5,0x3f
    8000120c:	00fc7c33          	and	s8,s8,a5
    80001210:	00174683          	lbu	a3,1(a4)
    80001214:	2c01                	sext.w	s8,s8
    80001216:	8722                	mv	a4,s0
    80001218:	b561                	j	800010a0 <vprintfmt+0x58>
    8000121a:	00174683          	lbu	a3,1(a4)
    8000121e:	03000b93          	li	s7,48
    80001222:	8722                	mv	a4,s0
    80001224:	bdb5                	j	800010a0 <vprintfmt+0x58>
    80001226:	fd06899b          	addiw	s3,a3,-48
    8000122a:	00174683          	lbu	a3,1(a4)
    8000122e:	8722                	mv	a4,s0
    80001230:	fd06879b          	addiw	a5,a3,-48
    80001234:	0006881b          	sext.w	a6,a3
    80001238:	faf56ce3          	bltu	a0,a5,800011f0 <vprintfmt+0x1a8>
    8000123c:	0705                	addi	a4,a4,1
    8000123e:	0029979b          	slliw	a5,s3,0x2
    80001242:	00074683          	lbu	a3,0(a4)
    80001246:	013789bb          	addw	s3,a5,s3
    8000124a:	0019999b          	slliw	s3,s3,0x1
    8000124e:	010989bb          	addw	s3,s3,a6
    80001252:	fd06879b          	addiw	a5,a3,-48
    80001256:	fd09899b          	addiw	s3,s3,-48
    8000125a:	0006881b          	sext.w	a6,a3
    8000125e:	fcf57fe3          	bleu	a5,a0,8000123c <vprintfmt+0x1f4>
    80001262:	b779                	j	800011f0 <vprintfmt+0x1a8>
    80001264:	000b2503          	lw	a0,0(s6)
    80001268:	85a6                	mv	a1,s1
    8000126a:	0b21                	addi	s6,s6,8
    8000126c:	9902                	jalr	s2
    8000126e:	bd01                	j	8000107e <vprintfmt+0x36>
    80001270:	4785                	li	a5,1
    80001272:	008b0c93          	addi	s9,s6,8
    80001276:	08b7d263          	ble	a1,a5,800012fa <vprintfmt+0x2b2>
    8000127a:	000b3983          	ld	s3,0(s6)
    8000127e:	0a09da63          	bgez	s3,80001332 <vprintfmt+0x2ea>
    80001282:	85a6                	mv	a1,s1
    80001284:	02d00513          	li	a0,45
    80001288:	9902                	jalr	s2
    8000128a:	8b66                	mv	s6,s9
    8000128c:	413007b3          	neg	a5,s3
    80001290:	4729                	li	a4,10
    80001292:	bd91                	j	800010e6 <vprintfmt+0x9e>
    80001294:	00174683          	lbu	a3,1(a4)
    80001298:	2585                	addiw	a1,a1,1
    8000129a:	8722                	mv	a4,s0
    8000129c:	b511                	j	800010a0 <vprintfmt+0x58>
    8000129e:	85a6                	mv	a1,s1
    800012a0:	02500513          	li	a0,37
    800012a4:	9902                	jalr	s2
    800012a6:	8466                	mv	s0,s9
    800012a8:	bbd9                	j	8000107e <vprintfmt+0x36>
    800012aa:	4785                	li	a5,1
    800012ac:	4981                	li	s3,0
    800012ae:	4c85                	li	s9,1
    800012b0:	e787c2e3          	blt	a5,s8,80001114 <vprintfmt+0xcc>
    800012b4:	bdad                	j	8000112e <vprintfmt+0xe6>
    800012b6:	41978c33          	sub	s8,a5,s9
    800012ba:	41858c3b          	subw	s8,a1,s8
    800012be:	07804263          	bgtz	s8,80001322 <vprintfmt+0x2da>
    800012c2:	000cc503          	lbu	a0,0(s9)
    800012c6:	da050ce3          	beqz	a0,8000107e <vprintfmt+0x36>
    800012ca:	5bfd                	li	s7,-1
    800012cc:	0209d363          	bgez	s3,800012f2 <vprintfmt+0x2aa>
    800012d0:	85a6                	mv	a1,s1
    800012d2:	0c85                	addi	s9,s9,1
    800012d4:	9902                	jalr	s2
    800012d6:	000cc503          	lbu	a0,0(s9)
    800012da:	3c7d                	addiw	s8,s8,-1
    800012dc:	f965                	bnez	a0,800012cc <vprintfmt+0x284>
    800012de:	db8050e3          	blez	s8,8000107e <vprintfmt+0x36>
    800012e2:	3c7d                	addiw	s8,s8,-1
    800012e4:	85a6                	mv	a1,s1
    800012e6:	02000513          	li	a0,32
    800012ea:	9902                	jalr	s2
    800012ec:	fe0c1be3          	bnez	s8,800012e2 <vprintfmt+0x29a>
    800012f0:	b379                	j	8000107e <vprintfmt+0x36>
    800012f2:	39fd                	addiw	s3,s3,-1
    800012f4:	fd799ee3          	bne	s3,s7,800012d0 <vprintfmt+0x288>
    800012f8:	b7dd                	j	800012de <vprintfmt+0x296>
    800012fa:	f1c1                	bnez	a1,8000127a <vprintfmt+0x232>
    800012fc:	000b2983          	lw	s3,0(s6)
    80001300:	bfbd                	j	8000127e <vprintfmt+0x236>
    80001302:	000cc503          	lbu	a0,0(s9)
    80001306:	dd71                	beqz	a0,800012e2 <vprintfmt+0x29a>
    80001308:	5bfd                	li	s7,-1
    8000130a:	b7c9                	j	800012cc <vprintfmt+0x284>
    8000130c:	03805763          	blez	s8,8000133a <vprintfmt+0x2f2>
    80001310:	02d00793          	li	a5,45
    80001314:	02fb8363          	beq	s7,a5,8000133a <vprintfmt+0x2f2>
    80001318:	00005c97          	auipc	s9,0x5
    8000131c:	e68c8c93          	addi	s9,s9,-408 # 80006180 <main+0x216>
    80001320:	b5b5                	j	8000118c <vprintfmt+0x144>
    80001322:	2b81                	sext.w	s7,s7
    80001324:	3c7d                	addiw	s8,s8,-1
    80001326:	85a6                	mv	a1,s1
    80001328:	855e                	mv	a0,s7
    8000132a:	9902                	jalr	s2
    8000132c:	fe0c1ce3          	bnez	s8,80001324 <vprintfmt+0x2dc>
    80001330:	bf49                	j	800012c2 <vprintfmt+0x27a>
    80001332:	87ce                	mv	a5,s3
    80001334:	8b66                	mv	s6,s9
    80001336:	4729                	li	a4,10
    80001338:	b37d                	j	800010e6 <vprintfmt+0x9e>
    8000133a:	00005c97          	auipc	s9,0x5
    8000133e:	e46c8c93          	addi	s9,s9,-442 # 80006180 <main+0x216>
    80001342:	02800513          	li	a0,40
    80001346:	5bfd                	li	s7,-1
    80001348:	b751                	j	800012cc <vprintfmt+0x284>
    8000134a:	41960c33          	sub	s8,a2,s9
    8000134e:	41858c3b          	subw	s8,a1,s8
    80001352:	fd8048e3          	bgtz	s8,80001322 <vprintfmt+0x2da>
    80001356:	b7b5                	j	800012c2 <vprintfmt+0x27a>

0000000080001358 <sprintf_putch.2947>:
    80001358:	619c                	ld	a5,0(a1)
    8000135a:	00a78023          	sb	a0,0(a5)
    8000135e:	619c                	ld	a5,0(a1)
    80001360:	0785                	addi	a5,a5,1
    80001362:	e19c                	sd	a5,0(a1)
    80001364:	8082                	ret

0000000080001366 <setStats>:
    80001366:	b00027f3          	csrr	a5,mcycle
    8000136a:	00005717          	auipc	a4,0x5
    8000136e:	eae70713          	addi	a4,a4,-338 # 80006218 <counters>
    80001372:	e919                	bnez	a0,80001388 <setStats+0x22>
    80001374:	6314                	ld	a3,0(a4)
    80001376:	00005617          	auipc	a2,0x5
    8000137a:	e1260613          	addi	a2,a2,-494 # 80006188 <main+0x21e>
    8000137e:	00005597          	auipc	a1,0x5
    80001382:	eac5b523          	sd	a2,-342(a1) # 80006228 <counter_names>
    80001386:	8f95                	sub	a5,a5,a3
    80001388:	00005697          	auipc	a3,0x5
    8000138c:	e8f6b823          	sd	a5,-368(a3) # 80006218 <counters>
    80001390:	b02027f3          	csrr	a5,minstret
    80001394:	e919                	bnez	a0,800013aa <setStats+0x44>
    80001396:	6718                	ld	a4,8(a4)
    80001398:	00005697          	auipc	a3,0x5
    8000139c:	df868693          	addi	a3,a3,-520 # 80006190 <main+0x226>
    800013a0:	00005617          	auipc	a2,0x5
    800013a4:	e8d63823          	sd	a3,-368(a2) # 80006230 <counter_names+0x8>
    800013a8:	8f99                	sub	a5,a5,a4
    800013aa:	00005717          	auipc	a4,0x5
    800013ae:	e6f73b23          	sd	a5,-394(a4) # 80006220 <counters+0x8>
    800013b2:	8082                	ret

00000000800013b4 <tohost_exit>:
    800013b4:	00151793          	slli	a5,a0,0x1
    800013b8:	0017e793          	ori	a5,a5,1
    800013bc:	00000717          	auipc	a4,0x0
    800013c0:	c4f73223          	sd	a5,-956(a4) # 80001000 <tohost>
    800013c4:	a001                	j	800013c4 <tohost_exit+0x10>

00000000800013c6 <handle_trap>:
    800013c6:	6785                	lui	a5,0x1
    800013c8:	a7378793          	addi	a5,a5,-1421 # a73 <_tbss_end+0xa73>
    800013cc:	00000717          	auipc	a4,0x0
    800013d0:	c2f73a23          	sd	a5,-972(a4) # 80001000 <tohost>
    800013d4:	a001                	j	800013d4 <handle_trap+0xe>

00000000800013d6 <exit>:
    800013d6:	1141                	addi	sp,sp,-16
    800013d8:	e406                	sd	ra,8(sp)
    800013da:	fdbff0ef          	jal	ra,800013b4 <tohost_exit>

00000000800013de <abort>:
    800013de:	10d00793          	li	a5,269
    800013e2:	00000717          	auipc	a4,0x0
    800013e6:	c0f73f23          	sd	a5,-994(a4) # 80001000 <tohost>
    800013ea:	a001                	j	800013ea <abort+0xc>

00000000800013ec <printstr>:
    800013ec:	00054783          	lbu	a5,0(a0)
    800013f0:	7119                	addi	sp,sp,-128
    800013f2:	03f10713          	addi	a4,sp,63
    800013f6:	86aa                	mv	a3,a0
    800013f8:	fc077713          	andi	a4,a4,-64
    800013fc:	c3b9                	beqz	a5,80001442 <printstr+0x56>
    800013fe:	862a                	mv	a2,a0
    80001400:	0505                	addi	a0,a0,1
    80001402:	00054783          	lbu	a5,0(a0)
    80001406:	ffed                	bnez	a5,80001400 <printstr+0x14>
    80001408:	8d11                	sub	a0,a0,a2
    8000140a:	04000793          	li	a5,64
    8000140e:	e31c                	sd	a5,0(a4)
    80001410:	4785                	li	a5,1
    80001412:	e71c                	sd	a5,8(a4)
    80001414:	eb14                	sd	a3,16(a4)
    80001416:	ef08                	sd	a0,24(a4)
    80001418:	0ff0000f          	fence
    8000141c:	00000797          	auipc	a5,0x0
    80001420:	bee7b223          	sd	a4,-1052(a5) # 80001000 <tohost>
    80001424:	00000697          	auipc	a3,0x0
    80001428:	c1c68693          	addi	a3,a3,-996 # 80001040 <fromhost>
    8000142c:	629c                	ld	a5,0(a3)
    8000142e:	dffd                	beqz	a5,8000142c <printstr+0x40>
    80001430:	00000797          	auipc	a5,0x0
    80001434:	c007b823          	sd	zero,-1008(a5) # 80001040 <fromhost>
    80001438:	0ff0000f          	fence
    8000143c:	631c                	ld	a5,0(a4)
    8000143e:	6109                	addi	sp,sp,128
    80001440:	8082                	ret
    80001442:	4501                	li	a0,0
    80001444:	b7d9                	j	8000140a <printstr+0x1e>

0000000080001446 <thread_entry>:
    80001446:	c111                	beqz	a0,8000144a <thread_entry+0x4>
    80001448:	a001                	j	80001448 <thread_entry+0x2>
    8000144a:	8082                	ret

000000008000144c <printhex>:
    8000144c:	7179                	addi	sp,sp,-48
    8000144e:	f406                	sd	ra,40(sp)
    80001450:	01710713          	addi	a4,sp,23
    80001454:	00710813          	addi	a6,sp,7
    80001458:	45a5                	li	a1,9
    8000145a:	00f57793          	andi	a5,a0,15
    8000145e:	03000613          	li	a2,48
    80001462:	0ff7f693          	andi	a3,a5,255
    80001466:	00f5f463          	bleu	a5,a1,8000146e <printhex+0x22>
    8000146a:	05700613          	li	a2,87
    8000146e:	00c687bb          	addw	a5,a3,a2
    80001472:	00f70023          	sb	a5,0(a4)
    80001476:	177d                	addi	a4,a4,-1
    80001478:	8111                	srli	a0,a0,0x4
    8000147a:	fee810e3          	bne	a6,a4,8000145a <printhex+0xe>
    8000147e:	0028                	addi	a0,sp,8
    80001480:	00010c23          	sb	zero,24(sp)
    80001484:	f69ff0ef          	jal	ra,800013ec <printstr>
    80001488:	70a2                	ld	ra,40(sp)
    8000148a:	6145                	addi	sp,sp,48
    8000148c:	8082                	ret

000000008000148e <virtual_printf>:
    8000148e:	711d                	addi	sp,sp,-96
    80001490:	02810313          	addi	t1,sp,40
    80001494:	f42e                	sd	a1,40(sp)
    80001496:	f832                	sd	a2,48(sp)
    80001498:	fc36                	sd	a3,56(sp)
    8000149a:	862a                	mv	a2,a0
    8000149c:	869a                	mv	a3,t1
    8000149e:	00000517          	auipc	a0,0x0
    800014a2:	52850513          	addi	a0,a0,1320 # 800019c6 <putchar>
    800014a6:	4581                	li	a1,0
    800014a8:	ec06                	sd	ra,24(sp)
    800014aa:	e0ba                	sd	a4,64(sp)
    800014ac:	e4be                	sd	a5,72(sp)
    800014ae:	e8c2                	sd	a6,80(sp)
    800014b0:	ecc6                	sd	a7,88(sp)
    800014b2:	e41a                	sd	t1,8(sp)
    800014b4:	b95ff0ef          	jal	ra,80001048 <vprintfmt>
    800014b8:	60e2                	ld	ra,24(sp)
    800014ba:	4501                	li	a0,0
    800014bc:	6125                	addi	sp,sp,96
    800014be:	8082                	ret

00000000800014c0 <sprintf>:
    800014c0:	711d                	addi	sp,sp,-96
    800014c2:	03010313          	addi	t1,sp,48
    800014c6:	f022                	sd	s0,32(sp)
    800014c8:	e42a                	sd	a0,8(sp)
    800014ca:	f832                	sd	a2,48(sp)
    800014cc:	fc36                	sd	a3,56(sp)
    800014ce:	842a                	mv	s0,a0
    800014d0:	862e                	mv	a2,a1
    800014d2:	00000517          	auipc	a0,0x0
    800014d6:	e8650513          	addi	a0,a0,-378 # 80001358 <sprintf_putch.2947>
    800014da:	002c                	addi	a1,sp,8
    800014dc:	869a                	mv	a3,t1
    800014de:	f406                	sd	ra,40(sp)
    800014e0:	e4be                	sd	a5,72(sp)
    800014e2:	e0ba                	sd	a4,64(sp)
    800014e4:	e8c2                	sd	a6,80(sp)
    800014e6:	ecc6                	sd	a7,88(sp)
    800014e8:	ec1a                	sd	t1,24(sp)
    800014ea:	b5fff0ef          	jal	ra,80001048 <vprintfmt>
    800014ee:	67a2                	ld	a5,8(sp)
    800014f0:	00078023          	sb	zero,0(a5)
    800014f4:	6522                	ld	a0,8(sp)
    800014f6:	70a2                	ld	ra,40(sp)
    800014f8:	9d01                	subw	a0,a0,s0
    800014fa:	7402                	ld	s0,32(sp)
    800014fc:	6125                	addi	sp,sp,96
    800014fe:	8082                	ret

0000000080001500 <memcpy>:
    80001500:	00c5e7b3          	or	a5,a1,a2
    80001504:	8fc9                	or	a5,a5,a0
    80001506:	8b9d                	andi	a5,a5,7
    80001508:	00c506b3          	add	a3,a0,a2
    8000150c:	cf91                	beqz	a5,80001528 <memcpy+0x28>
    8000150e:	962e                	add	a2,a2,a1
    80001510:	87aa                	mv	a5,a0
    80001512:	02d57763          	bleu	a3,a0,80001540 <memcpy+0x40>
    80001516:	0585                	addi	a1,a1,1
    80001518:	fff5c703          	lbu	a4,-1(a1)
    8000151c:	0785                	addi	a5,a5,1
    8000151e:	fee78fa3          	sb	a4,-1(a5)
    80001522:	feb61ae3          	bne	a2,a1,80001516 <memcpy+0x16>
    80001526:	8082                	ret
    80001528:	fed57fe3          	bleu	a3,a0,80001526 <memcpy+0x26>
    8000152c:	87aa                	mv	a5,a0
    8000152e:	05a1                	addi	a1,a1,8
    80001530:	ff85b703          	ld	a4,-8(a1)
    80001534:	07a1                	addi	a5,a5,8
    80001536:	fee7bc23          	sd	a4,-8(a5)
    8000153a:	fed7eae3          	bltu	a5,a3,8000152e <memcpy+0x2e>
    8000153e:	8082                	ret
    80001540:	8082                	ret

0000000080001542 <memset>:
    80001542:	00c567b3          	or	a5,a0,a2
    80001546:	8b9d                	andi	a5,a5,7
    80001548:	962a                	add	a2,a2,a0
    8000154a:	0ff5f593          	andi	a1,a1,255
    8000154e:	cb91                	beqz	a5,80001562 <memset+0x20>
    80001550:	87aa                	mv	a5,a0
    80001552:	02c57a63          	bleu	a2,a0,80001586 <memset+0x44>
    80001556:	0785                	addi	a5,a5,1
    80001558:	feb78fa3          	sb	a1,-1(a5)
    8000155c:	fef61de3          	bne	a2,a5,80001556 <memset+0x14>
    80001560:	8082                	ret
    80001562:	00859793          	slli	a5,a1,0x8
    80001566:	8fcd                	or	a5,a5,a1
    80001568:	01079593          	slli	a1,a5,0x10
    8000156c:	8fcd                	or	a5,a5,a1
    8000156e:	02079713          	slli	a4,a5,0x20
    80001572:	8fd9                	or	a5,a5,a4
    80001574:	fec576e3          	bleu	a2,a0,80001560 <memset+0x1e>
    80001578:	872a                	mv	a4,a0
    8000157a:	0721                	addi	a4,a4,8
    8000157c:	fef73c23          	sd	a5,-8(a4)
    80001580:	fec76de3          	bltu	a4,a2,8000157a <memset+0x38>
    80001584:	8082                	ret
    80001586:	8082                	ret

0000000080001588 <_init>:
    80001588:	7131                	addi	sp,sp,-192
    8000158a:	f922                	sd	s0,176(sp)
    8000158c:	f526                	sd	s1,168(sp)
    8000158e:	00020493          	mv	s1,tp
    80001592:	00020413          	mv	s0,tp
    80001596:	40848433          	sub	s0,s1,s0
    8000159a:	8622                	mv	a2,s0
    8000159c:	ed4e                	sd	s3,152(sp)
    8000159e:	e952                	sd	s4,144(sp)
    800015a0:	89aa                	mv	s3,a0
    800015a2:	8a2e                	mv	s4,a1
    800015a4:	8512                	mv	a0,tp
    800015a6:	00005597          	auipc	a1,0x5
    800015aa:	c9258593          	addi	a1,a1,-878 # 80006238 <_end>
    800015ae:	fd06                	sd	ra,184(sp)
    800015b0:	f14a                	sd	s2,160(sp)
    800015b2:	e556                	sd	s5,136(sp)
    800015b4:	8a92                	mv	s5,tp
    800015b6:	f4bff0ef          	jal	ra,80001500 <memcpy>
    800015ba:	00020613          	mv	a2,tp
    800015be:	8e05                	sub	a2,a2,s1
    800015c0:	4581                	li	a1,0
    800015c2:	008a8533          	add	a0,s5,s0
    800015c6:	f7dff0ef          	jal	ra,80001542 <memset>
    800015ca:	854e                	mv	a0,s3
    800015cc:	85d2                	mv	a1,s4
    800015ce:	e79ff0ef          	jal	ra,80001446 <thread_entry>
    800015d2:	4581                	li	a1,0
    800015d4:	4501                	li	a0,0
    800015d6:	195040ef          	jal	ra,80005f6a <main>
    800015da:	00005417          	auipc	s0,0x5
    800015de:	c3e40413          	addi	s0,s0,-962 # 80006218 <counters>
    800015e2:	6014                	ld	a3,0(s0)
    800015e4:	03f10913          	addi	s2,sp,63
    800015e8:	fc097913          	andi	s2,s2,-64
    800015ec:	89aa                	mv	s3,a0
    800015ee:	e695                	bnez	a3,8000161a <_init+0x92>
    800015f0:	6414                	ld	a3,8(s0)
    800015f2:	e681                	bnez	a3,800015fa <_init+0x72>
    800015f4:	854e                	mv	a0,s3
    800015f6:	dbfff0ef          	jal	ra,800013b4 <tohost_exit>
    800015fa:	84ca                	mv	s1,s2
    800015fc:	6c10                	ld	a2,24(s0)
    800015fe:	8526                	mv	a0,s1
    80001600:	00005597          	auipc	a1,0x5
    80001604:	bb858593          	addi	a1,a1,-1096 # 800061b8 <main+0x24e>
    80001608:	eb9ff0ef          	jal	ra,800014c0 <sprintf>
    8000160c:	94aa                	add	s1,s1,a0
    8000160e:	fe9903e3          	beq	s2,s1,800015f4 <_init+0x6c>
    80001612:	854a                	mv	a0,s2
    80001614:	dd9ff0ef          	jal	ra,800013ec <printstr>
    80001618:	bff1                	j	800015f4 <_init+0x6c>
    8000161a:	6810                	ld	a2,16(s0)
    8000161c:	00005597          	auipc	a1,0x5
    80001620:	b9c58593          	addi	a1,a1,-1124 # 800061b8 <main+0x24e>
    80001624:	854a                	mv	a0,s2
    80001626:	e9bff0ef          	jal	ra,800014c0 <sprintf>
    8000162a:	6414                	ld	a3,8(s0)
    8000162c:	00a904b3          	add	s1,s2,a0
    80001630:	def9                	beqz	a3,8000160e <_init+0x86>
    80001632:	b7e9                	j	800015fc <_init+0x74>

0000000080001634 <strlen>:
    80001634:	00054783          	lbu	a5,0(a0)
    80001638:	872a                	mv	a4,a0
    8000163a:	c799                	beqz	a5,80001648 <strlen+0x14>
    8000163c:	0505                	addi	a0,a0,1
    8000163e:	00054783          	lbu	a5,0(a0)
    80001642:	ffed                	bnez	a5,8000163c <strlen+0x8>
    80001644:	8d19                	sub	a0,a0,a4
    80001646:	8082                	ret
    80001648:	4501                	li	a0,0
    8000164a:	8082                	ret

000000008000164c <strnlen>:
    8000164c:	872a                	mv	a4,a0
    8000164e:	cd91                	beqz	a1,8000166a <strnlen+0x1e>
    80001650:	00054783          	lbu	a5,0(a0)
    80001654:	cb99                	beqz	a5,8000166a <strnlen+0x1e>
    80001656:	95aa                	add	a1,a1,a0
    80001658:	a021                	j	80001660 <strnlen+0x14>
    8000165a:	00054783          	lbu	a5,0(a0)
    8000165e:	c781                	beqz	a5,80001666 <strnlen+0x1a>
    80001660:	0505                	addi	a0,a0,1
    80001662:	feb51ce3          	bne	a0,a1,8000165a <strnlen+0xe>
    80001666:	8d19                	sub	a0,a0,a4
    80001668:	8082                	ret
    8000166a:	4501                	li	a0,0
    8000166c:	8082                	ret

000000008000166e <strcmp>:
    8000166e:	0505                	addi	a0,a0,1
    80001670:	fff54783          	lbu	a5,-1(a0)
    80001674:	0585                	addi	a1,a1,1
    80001676:	fff5c703          	lbu	a4,-1(a1)
    8000167a:	c799                	beqz	a5,80001688 <strcmp+0x1a>
    8000167c:	fee789e3          	beq	a5,a4,8000166e <strcmp>
    80001680:	0007851b          	sext.w	a0,a5
    80001684:	9d19                	subw	a0,a0,a4
    80001686:	8082                	ret
    80001688:	4501                	li	a0,0
    8000168a:	bfed                	j	80001684 <strcmp+0x16>

000000008000168c <strcpy>:
    8000168c:	87aa                	mv	a5,a0
    8000168e:	0585                	addi	a1,a1,1
    80001690:	fff5c703          	lbu	a4,-1(a1)
    80001694:	0785                	addi	a5,a5,1
    80001696:	fee78fa3          	sb	a4,-1(a5)
    8000169a:	fb75                	bnez	a4,8000168e <strcpy+0x2>
    8000169c:	8082                	ret

000000008000169e <atol>:
    8000169e:	00054783          	lbu	a5,0(a0)
    800016a2:	02000713          	li	a4,32
    800016a6:	00e79763          	bne	a5,a4,800016b4 <atol+0x16>
    800016aa:	0505                	addi	a0,a0,1
    800016ac:	00054783          	lbu	a5,0(a0)
    800016b0:	fee78de3          	beq	a5,a4,800016aa <atol+0xc>
    800016b4:	fd57871b          	addiw	a4,a5,-43
    800016b8:	0fd77713          	andi	a4,a4,253
    800016bc:	c715                	beqz	a4,800016e8 <atol+0x4a>
    800016be:	00054683          	lbu	a3,0(a0)
    800016c2:	87aa                	mv	a5,a0
    800016c4:	4601                	li	a2,0
    800016c6:	ce85                	beqz	a3,800016fe <atol+0x60>
    800016c8:	4501                	li	a0,0
    800016ca:	0785                	addi	a5,a5,1
    800016cc:	fd06859b          	addiw	a1,a3,-48
    800016d0:	00251713          	slli	a4,a0,0x2
    800016d4:	0007c683          	lbu	a3,0(a5)
    800016d8:	953a                	add	a0,a0,a4
    800016da:	0506                	slli	a0,a0,0x1
    800016dc:	952e                	add	a0,a0,a1
    800016de:	f6f5                	bnez	a3,800016ca <atol+0x2c>
    800016e0:	c219                	beqz	a2,800016e6 <atol+0x48>
    800016e2:	40a00533          	neg	a0,a0
    800016e6:	8082                	ret
    800016e8:	00154683          	lbu	a3,1(a0)
    800016ec:	fd378793          	addi	a5,a5,-45
    800016f0:	0017b613          	seqz	a2,a5
    800016f4:	00150793          	addi	a5,a0,1
    800016f8:	fae1                	bnez	a3,800016c8 <atol+0x2a>
    800016fa:	4501                	li	a0,0
    800016fc:	b7d5                	j	800016e0 <atol+0x42>
    800016fe:	4501                	li	a0,0
    80001700:	8082                	ret

0000000080001702 <qprintchar.part.0>:
    80001702:	40000737          	lui	a4,0x40000
    80001706:	4b5c                	lw	a5,20(a4)
    80001708:	0207f793          	andi	a5,a5,32
    8000170c:	dfed                	beqz	a5,80001706 <qprintchar.part.0+0x4>
    8000170e:	2501                	sext.w	a0,a0
    80001710:	c308                	sw	a0,0(a4)
    80001712:	8082                	ret

0000000080001714 <qprints.constprop.3>:
    80001714:	7179                	addi	sp,sp,-48
    80001716:	ec26                	sd	s1,24(sp)
    80001718:	e84a                	sd	s2,16(sp)
    8000171a:	f406                	sd	ra,40(sp)
    8000171c:	f022                	sd	s0,32(sp)
    8000171e:	e44e                	sd	s3,8(sp)
    80001720:	84aa                	mv	s1,a0
    80001722:	892e                	mv	s2,a1
    80001724:	00054503          	lbu	a0,0(a0)
    80001728:	08b05563          	blez	a1,800017b2 <qprints.constprop.3+0x9e>
    8000172c:	c555                	beqz	a0,800017d8 <qprints.constprop.3+0xc4>
    8000172e:	87a6                	mv	a5,s1
    80001730:	4401                	li	s0,0
    80001732:	0785                	addi	a5,a5,1
    80001734:	0007c703          	lbu	a4,0(a5)
    80001738:	2405                	addiw	s0,s0,1
    8000173a:	ff65                	bnez	a4,80001732 <qprints.constprop.3+0x1e>
    8000173c:	05244363          	blt	s0,s2,80001782 <qprints.constprop.3+0x6e>
    80001740:	8a09                	andi	a2,a2,2
    80001742:	0006041b          	sext.w	s0,a2
    80001746:	c051                	beqz	s0,800017ca <qprints.constprop.3+0xb6>
    80001748:	0485                	addi	s1,s1,1
    8000174a:	fb9ff0ef          	jal	ra,80001702 <qprintchar.part.0>
    8000174e:	0004c503          	lbu	a0,0(s1)
    80001752:	4401                	li	s0,0
    80001754:	03000993          	li	s3,48
    80001758:	4901                	li	s2,0
    8000175a:	2405                	addiw	s0,s0,1
    8000175c:	ed39                	bnez	a0,800017ba <qprints.constprop.3+0xa6>
    8000175e:	01205a63          	blez	s2,80001772 <qprints.constprop.3+0x5e>
    80001762:	84ca                	mv	s1,s2
    80001764:	34fd                	addiw	s1,s1,-1
    80001766:	854e                	mv	a0,s3
    80001768:	f9bff0ef          	jal	ra,80001702 <qprintchar.part.0>
    8000176c:	fce5                	bnez	s1,80001764 <qprints.constprop.3+0x50>
    8000176e:	0124043b          	addw	s0,s0,s2
    80001772:	8522                	mv	a0,s0
    80001774:	70a2                	ld	ra,40(sp)
    80001776:	7402                	ld	s0,32(sp)
    80001778:	64e2                	ld	s1,24(sp)
    8000177a:	6942                	ld	s2,16(sp)
    8000177c:	69a2                	ld	s3,8(sp)
    8000177e:	6145                	addi	sp,sp,48
    80001780:	8082                	ret
    80001782:	4089043b          	subw	s0,s2,s0
    80001786:	00267793          	andi	a5,a2,2
    8000178a:	02000993          	li	s3,32
    8000178e:	c399                	beqz	a5,80001794 <qprints.constprop.3+0x80>
    80001790:	03000993          	li	s3,48
    80001794:	8a05                	andi	a2,a2,1
    80001796:	8922                	mv	s2,s0
    80001798:	ee0d                	bnez	a2,800017d2 <qprints.constprop.3+0xbe>
    8000179a:	00805e63          	blez	s0,800017b6 <qprints.constprop.3+0xa2>
    8000179e:	397d                	addiw	s2,s2,-1
    800017a0:	854e                	mv	a0,s3
    800017a2:	f61ff0ef          	jal	ra,80001702 <qprintchar.part.0>
    800017a6:	fe091ce3          	bnez	s2,8000179e <qprints.constprop.3+0x8a>
    800017aa:	0004c503          	lbu	a0,0(s1)
    800017ae:	e511                	bnez	a0,800017ba <qprints.constprop.3+0xa6>
    800017b0:	b7c9                	j	80001772 <qprints.constprop.3+0x5e>
    800017b2:	02000993          	li	s3,32
    800017b6:	4401                	li	s0,0
    800017b8:	dd4d                	beqz	a0,80001772 <qprints.constprop.3+0x5e>
    800017ba:	0485                	addi	s1,s1,1
    800017bc:	f47ff0ef          	jal	ra,80001702 <qprintchar.part.0>
    800017c0:	0004c503          	lbu	a0,0(s1)
    800017c4:	2405                	addiw	s0,s0,1
    800017c6:	f975                	bnez	a0,800017ba <qprints.constprop.3+0xa6>
    800017c8:	bf59                	j	8000175e <qprints.constprop.3+0x4a>
    800017ca:	4901                	li	s2,0
    800017cc:	02000993          	li	s3,32
    800017d0:	b7ed                	j	800017ba <qprints.constprop.3+0xa6>
    800017d2:	4401                	li	s0,0
    800017d4:	f17d                	bnez	a0,800017ba <qprints.constprop.3+0xa6>
    800017d6:	b761                	j	8000175e <qprints.constprop.3+0x4a>
    800017d8:	842e                	mv	s0,a1
    800017da:	b775                	j	80001786 <qprints.constprop.3+0x72>

00000000800017dc <qprinti.constprop.2>:
    800017dc:	715d                	addi	sp,sp,-80
    800017de:	e486                	sd	ra,72(sp)
    800017e0:	e0a2                	sd	s0,64(sp)
    800017e2:	fc26                	sd	s1,56(sp)
    800017e4:	10050a63          	beqz	a0,800018f8 <qprinti.constprop.2+0x11c>
    800017e8:	8432                	mv	s0,a2
    800017ea:	0005081b          	sext.w	a6,a0
    800017ee:	ca31                	beqz	a2,80001842 <qprinti.constprop.2+0x66>
    800017f0:	4629                	li	a2,10
    800017f2:	12c58163          	beq	a1,a2,80001914 <qprinti.constprop.2+0x138>
    800017f6:	020107a3          	sb	zero,47(sp)
    800017fa:	4641                	li	a2,16
    800017fc:	4401                	li	s0,0
    800017fe:	04c59763          	bne	a1,a2,8000184c <qprinti.constprop.2+0x70>
    80001802:	02f10513          	addi	a0,sp,47
    80001806:	48a5                	li	a7,9
    80001808:	fc67879b          	addiw	a5,a5,-58
    8000180c:	0048559b          	srliw	a1,a6,0x4
    80001810:	00f87613          	andi	a2,a6,15
    80001814:	157d                	addi	a0,a0,-1
    80001816:	0005881b          	sext.w	a6,a1
    8000181a:	00c8d363          	ble	a2,a7,80001820 <qprinti.constprop.2+0x44>
    8000181e:	9e3d                	addw	a2,a2,a5
    80001820:	0306061b          	addiw	a2,a2,48
    80001824:	00c50023          	sb	a2,0(a0)
    80001828:	fe0812e3          	bnez	a6,8000180c <qprinti.constprop.2+0x30>
    8000182c:	4401                	li	s0,0
    8000182e:	863a                	mv	a2,a4
    80001830:	85b6                	mv	a1,a3
    80001832:	ee3ff0ef          	jal	ra,80001714 <qprints.constprop.3>
    80001836:	9d21                	addw	a0,a0,s0
    80001838:	60a6                	ld	ra,72(sp)
    8000183a:	6406                	ld	s0,64(sp)
    8000183c:	74e2                	ld	s1,56(sp)
    8000183e:	6161                	addi	sp,sp,80
    80001840:	8082                	ret
    80001842:	020107a3          	sb	zero,47(sp)
    80001846:	4641                	li	a2,16
    80001848:	fac58de3          	beq	a1,a2,80001802 <qprinti.constprop.2+0x26>
    8000184c:	1999a5b7          	lui	a1,0x1999a
    80001850:	02f10493          	addi	s1,sp,47
    80001854:	00005e17          	auipc	t3,0x5
    80001858:	9b4e0e13          	addi	t3,t3,-1612 # 80006208 <remu10_table>
    8000185c:	9995859b          	addiw	a1,a1,-1639
    80001860:	02b808bb          	mulw	a7,a6,a1
    80001864:	0018561b          	srliw	a2,a6,0x1
    80001868:	0028579b          	srliw	a5,a6,0x2
    8000186c:	9fb1                	addw	a5,a5,a2
    8000186e:	0047d51b          	srliw	a0,a5,0x4
    80001872:	9fa9                	addw	a5,a5,a0
    80001874:	0038531b          	srliw	t1,a6,0x3
    80001878:	0087d51b          	srliw	a0,a5,0x8
    8000187c:	9fa9                	addw	a5,a5,a0
    8000187e:	0107d51b          	srliw	a0,a5,0x10
    80001882:	00c888bb          	addw	a7,a7,a2
    80001886:	006888bb          	addw	a7,a7,t1
    8000188a:	01c8d89b          	srliw	a7,a7,0x1c
    8000188e:	9fa9                	addw	a5,a5,a0
    80001890:	1882                	slli	a7,a7,0x20
    80001892:	0037d79b          	srliw	a5,a5,0x3
    80001896:	0208d893          	srli	a7,a7,0x20
    8000189a:	98f2                	add	a7,a7,t3
    8000189c:	0027931b          	slliw	t1,a5,0x2
    800018a0:	0008c503          	lbu	a0,0(a7)
    800018a4:	00f308bb          	addw	a7,t1,a5
    800018a8:	0018989b          	slliw	a7,a7,0x1
    800018ac:	2819                	addiw	a6,a6,6
    800018ae:	4118083b          	subw	a6,a6,a7
    800018b2:	14fd                	addi	s1,s1,-1
    800018b4:	0305089b          	addiw	a7,a0,48
    800018b8:	0048581b          	srliw	a6,a6,0x4
    800018bc:	01148023          	sb	a7,0(s1)
    800018c0:	00f8083b          	addw	a6,a6,a5
    800018c4:	f8081ee3          	bnez	a6,80001860 <qprinti.constprop.2+0x84>
    800018c8:	cc21                	beqz	s0,80001920 <qprinti.constprop.2+0x144>
    800018ca:	c285                	beqz	a3,800018ea <qprinti.constprop.2+0x10e>
    800018cc:	00277793          	andi	a5,a4,2
    800018d0:	cf89                	beqz	a5,800018ea <qprinti.constprop.2+0x10e>
    800018d2:	02d00513          	li	a0,45
    800018d6:	e43a                	sd	a4,8(sp)
    800018d8:	e036                	sd	a3,0(sp)
    800018da:	e29ff0ef          	jal	ra,80001702 <qprintchar.part.0>
    800018de:	6682                	ld	a3,0(sp)
    800018e0:	8526                	mv	a0,s1
    800018e2:	4405                	li	s0,1
    800018e4:	36fd                	addiw	a3,a3,-1
    800018e6:	6722                	ld	a4,8(sp)
    800018e8:	b799                	j	8000182e <qprinti.constprop.2+0x52>
    800018ea:	02d00793          	li	a5,45
    800018ee:	fff48513          	addi	a0,s1,-1
    800018f2:	fef48fa3          	sb	a5,-1(s1)
    800018f6:	bf1d                	j	8000182c <qprinti.constprop.2+0x50>
    800018f8:	0808                	addi	a0,sp,16
    800018fa:	03000793          	li	a5,48
    800018fe:	863a                	mv	a2,a4
    80001900:	85b6                	mv	a1,a3
    80001902:	00f11823          	sh	a5,16(sp)
    80001906:	e0fff0ef          	jal	ra,80001714 <qprints.constprop.3>
    8000190a:	60a6                	ld	ra,72(sp)
    8000190c:	6406                	ld	s0,64(sp)
    8000190e:	74e2                	ld	s1,56(sp)
    80001910:	6161                	addi	sp,sp,80
    80001912:	8082                	ret
    80001914:	00054863          	bltz	a0,80001924 <qprinti.constprop.2+0x148>
    80001918:	020107a3          	sb	zero,47(sp)
    8000191c:	4401                	li	s0,0
    8000191e:	b73d                	j	8000184c <qprinti.constprop.2+0x70>
    80001920:	8526                	mv	a0,s1
    80001922:	b731                	j	8000182e <qprinti.constprop.2+0x52>
    80001924:	40a0083b          	negw	a6,a0
    80001928:	020107a3          	sb	zero,47(sp)
    8000192c:	b705                	j	8000184c <qprinti.constprop.2+0x70>

000000008000192e <uart_set_cfg>:
    8000192e:	400007b7          	lui	a5,0x40000
    80001932:	08300713          	li	a4,131
    80001936:	c7d8                	sw	a4,12(a5)
    80001938:	0085d713          	srli	a4,a1,0x8
    8000193c:	c3d8                	sw	a4,4(a5)
    8000193e:	0ff5f593          	andi	a1,a1,255
    80001942:	c38c                	sw	a1,0(a5)
    80001944:	0a700713          	li	a4,167
    80001948:	c798                	sw	a4,8(a5)
    8000194a:	470d                	li	a4,3
    8000194c:	c7d8                	sw	a4,12(a5)
    8000194e:	43d8                	lw	a4,4(a5)
    80001950:	0f077713          	andi	a4,a4,240
    80001954:	00276713          	ori	a4,a4,2
    80001958:	c3d8                	sw	a4,4(a5)
    8000195a:	8082                	ret

000000008000195c <uart_send>:
    8000195c:	400006b7          	lui	a3,0x40000
    80001960:	c59d                	beqz	a1,8000198e <uart_send+0x32>
    80001962:	4adc                	lw	a5,20(a3)
    80001964:	0207f793          	andi	a5,a5,32
    80001968:	dfed                	beqz	a5,80001962 <uart_send+0x6>
    8000196a:	00054703          	lbu	a4,0(a0)
    8000196e:	00150793          	addi	a5,a0,1
    80001972:	35fd                	addiw	a1,a1,-1
    80001974:	c298                	sw	a4,0(a3)
    80001976:	04050513          	addi	a0,a0,64
    8000197a:	a039                	j	80001988 <uart_send+0x2c>
    8000197c:	fff7c703          	lbu	a4,-1(a5) # 3fffffff <_tbss_end+0x3fffffff>
    80001980:	35fd                	addiw	a1,a1,-1
    80001982:	c298                	sw	a4,0(a3)
    80001984:	00a78663          	beq	a5,a0,80001990 <uart_send+0x34>
    80001988:	0785                	addi	a5,a5,1
    8000198a:	f9ed                	bnez	a1,8000197c <uart_send+0x20>
    8000198c:	8082                	ret
    8000198e:	8082                	ret
    80001990:	853e                	mv	a0,a5
    80001992:	b7f9                	j	80001960 <uart_send+0x4>

0000000080001994 <uart_getchar>:
    80001994:	40000737          	lui	a4,0x40000
    80001998:	4b5c                	lw	a5,20(a4)
    8000199a:	8b85                	andi	a5,a5,1
    8000199c:	dff5                	beqz	a5,80001998 <uart_getchar+0x4>
    8000199e:	4308                	lw	a0,0(a4)
    800019a0:	0ff57513          	andi	a0,a0,255
    800019a4:	8082                	ret

00000000800019a6 <uart_sendchar>:
    800019a6:	40000737          	lui	a4,0x40000
    800019aa:	4b5c                	lw	a5,20(a4)
    800019ac:	0207f793          	andi	a5,a5,32
    800019b0:	dfed                	beqz	a5,800019aa <uart_sendchar+0x4>
    800019b2:	2501                	sext.w	a0,a0
    800019b4:	c308                	sw	a0,0(a4)
    800019b6:	8082                	ret

00000000800019b8 <uart_wait_tx_done>:
    800019b8:	40000737          	lui	a4,0x40000
    800019bc:	4b5c                	lw	a5,20(a4)
    800019be:	0407f793          	andi	a5,a5,64
    800019c2:	dfed                	beqz	a5,800019bc <uart_wait_tx_done+0x4>
    800019c4:	8082                	ret

00000000800019c6 <putchar>:
    800019c6:	40000737          	lui	a4,0x40000
    800019ca:	4b5c                	lw	a5,20(a4)
    800019cc:	0207f793          	andi	a5,a5,32
    800019d0:	dfed                	beqz	a5,800019ca <putchar+0x4>
    800019d2:	0ff57793          	andi	a5,a0,255
    800019d6:	c31c                	sw	a5,0(a4)
    800019d8:	8082                	ret

00000000800019da <printf>:
    800019da:	7171                	addi	sp,sp,-176
    800019dc:	e0d2                	sd	s4,64(sp)
    800019de:	f486                	sd	ra,104(sp)
    800019e0:	f0a2                	sd	s0,96(sp)
    800019e2:	eca6                	sd	s1,88(sp)
    800019e4:	e8ca                	sd	s2,80(sp)
    800019e6:	e4ce                	sd	s3,72(sp)
    800019e8:	fc56                	sd	s5,56(sp)
    800019ea:	f85a                	sd	s6,48(sp)
    800019ec:	f45e                	sd	s7,40(sp)
    800019ee:	f062                	sd	s8,32(sp)
    800019f0:	ec66                	sd	s9,24(sp)
    800019f2:	fcae                	sd	a1,120(sp)
    800019f4:	e132                	sd	a2,128(sp)
    800019f6:	e536                	sd	a3,136(sp)
    800019f8:	e93a                	sd	a4,144(sp)
    800019fa:	ed3e                	sd	a5,152(sp)
    800019fc:	f142                	sd	a6,160(sp)
    800019fe:	f546                	sd	a7,168(sp)
    80001a00:	00054783          	lbu	a5,0(a0)
    80001a04:	07810a13          	addi	s4,sp,120
    80001a08:	e452                	sd	s4,8(sp)
    80001a0a:	c7f5                	beqz	a5,80001af6 <printf+0x11c>
    80001a0c:	8c2a                	mv	s8,a0
    80001a0e:	4c81                	li	s9,0
    80001a10:	02500493          	li	s1,37
    80001a14:	02d00b13          	li	s6,45
    80001a18:	03000993          	li	s3,48
    80001a1c:	4925                	li	s2,9
    80001a1e:	07300a93          	li	s5,115
    80001a22:	00004b97          	auipc	s7,0x4
    80001a26:	75eb8b93          	addi	s7,s7,1886 # 80006180 <main+0x216>
    80001a2a:	a821                	j	80001a42 <printf+0x68>
    80001a2c:	87a2                	mv	a5,s0
    80001a2e:	000c4503          	lbu	a0,0(s8)
    80001a32:	8462                	mv	s0,s8
    80001a34:	8c3e                	mv	s8,a5
    80001a36:	ccdff0ef          	jal	ra,80001702 <qprintchar.part.0>
    80001a3a:	2c85                	addiw	s9,s9,1
    80001a3c:	00144783          	lbu	a5,1(s0)
    80001a40:	cfc5                	beqz	a5,80001af8 <printf+0x11e>
    80001a42:	001c0413          	addi	s0,s8,1
    80001a46:	fe9793e3          	bne	a5,s1,80001a2c <printf+0x52>
    80001a4a:	001c4503          	lbu	a0,1(s8)
    80001a4e:	c54d                	beqz	a0,80001af8 <printf+0x11e>
    80001a50:	00951463          	bne	a0,s1,80001a58 <printf+0x7e>
    80001a54:	0c09                	addi	s8,s8,2
    80001a56:	b7c5                	j	80001a36 <printf+0x5c>
    80001a58:	4701                	li	a4,0
    80001a5a:	09650863          	beq	a0,s6,80001aea <printf+0x110>
    80001a5e:	01351963          	bne	a0,s3,80001a70 <printf+0x96>
    80001a62:	0405                	addi	s0,s0,1
    80001a64:	00044503          	lbu	a0,0(s0)
    80001a68:	00276713          	ori	a4,a4,2
    80001a6c:	ff350be3          	beq	a0,s3,80001a62 <printf+0x88>
    80001a70:	fd05079b          	addiw	a5,a0,-48
    80001a74:	0ff7f693          	andi	a3,a5,255
    80001a78:	4581                	li	a1,0
    80001a7a:	02d96263          	bltu	s2,a3,80001a9e <printf+0xc4>
    80001a7e:	0405                	addi	s0,s0,1
    80001a80:	0025969b          	slliw	a3,a1,0x2
    80001a84:	00044503          	lbu	a0,0(s0)
    80001a88:	9ead                	addw	a3,a3,a1
    80001a8a:	0016969b          	slliw	a3,a3,0x1
    80001a8e:	00d785bb          	addw	a1,a5,a3
    80001a92:	fd05079b          	addiw	a5,a0,-48
    80001a96:	0ff7f693          	andi	a3,a5,255
    80001a9a:	fed972e3          	bleu	a3,s2,80001a7e <printf+0xa4>
    80001a9e:	00140c13          	addi	s8,s0,1
    80001aa2:	07550963          	beq	a0,s5,80001b14 <printf+0x13a>
    80001aa6:	06400793          	li	a5,100
    80001aaa:	06f50f63          	beq	a0,a5,80001b28 <printf+0x14e>
    80001aae:	07500793          	li	a5,117
    80001ab2:	08f50863          	beq	a0,a5,80001b42 <printf+0x168>
    80001ab6:	07800793          	li	a5,120
    80001aba:	0af50163          	beq	a0,a5,80001b5c <printf+0x182>
    80001abe:	05800793          	li	a5,88
    80001ac2:	0af50a63          	beq	a0,a5,80001b76 <printf+0x19c>
    80001ac6:	06300793          	li	a5,99
    80001aca:	f6f519e3          	bne	a0,a5,80001a3c <printf+0x62>
    80001ace:	000a2783          	lw	a5,0(s4)
    80001ad2:	863a                	mv	a2,a4
    80001ad4:	850a                	mv	a0,sp
    80001ad6:	00f10023          	sb	a5,0(sp)
    80001ada:	000100a3          	sb	zero,1(sp)
    80001ade:	c37ff0ef          	jal	ra,80001714 <qprints.constprop.3>
    80001ae2:	0a21                	addi	s4,s4,8
    80001ae4:	01950cbb          	addw	s9,a0,s9
    80001ae8:	bf91                	j	80001a3c <printf+0x62>
    80001aea:	002c4503          	lbu	a0,2(s8)
    80001aee:	002c0413          	addi	s0,s8,2
    80001af2:	4705                	li	a4,1
    80001af4:	b7ad                	j	80001a5e <printf+0x84>
    80001af6:	4c81                	li	s9,0
    80001af8:	70a6                	ld	ra,104(sp)
    80001afa:	7406                	ld	s0,96(sp)
    80001afc:	8566                	mv	a0,s9
    80001afe:	64e6                	ld	s1,88(sp)
    80001b00:	6946                	ld	s2,80(sp)
    80001b02:	69a6                	ld	s3,72(sp)
    80001b04:	6a06                	ld	s4,64(sp)
    80001b06:	7ae2                	ld	s5,56(sp)
    80001b08:	7b42                	ld	s6,48(sp)
    80001b0a:	7ba2                	ld	s7,40(sp)
    80001b0c:	7c02                	ld	s8,32(sp)
    80001b0e:	6ce2                	ld	s9,24(sp)
    80001b10:	614d                	addi	sp,sp,176
    80001b12:	8082                	ret
    80001b14:	000a3503          	ld	a0,0(s4)
    80001b18:	0a21                	addi	s4,s4,8
    80001b1a:	c13d                	beqz	a0,80001b80 <printf+0x1a6>
    80001b1c:	863a                	mv	a2,a4
    80001b1e:	bf7ff0ef          	jal	ra,80001714 <qprints.constprop.3>
    80001b22:	01950cbb          	addw	s9,a0,s9
    80001b26:	bf19                	j	80001a3c <printf+0x62>
    80001b28:	000a2503          	lw	a0,0(s4)
    80001b2c:	86ae                	mv	a3,a1
    80001b2e:	06100793          	li	a5,97
    80001b32:	4605                	li	a2,1
    80001b34:	45a9                	li	a1,10
    80001b36:	ca7ff0ef          	jal	ra,800017dc <qprinti.constprop.2>
    80001b3a:	0a21                	addi	s4,s4,8
    80001b3c:	01950cbb          	addw	s9,a0,s9
    80001b40:	bdf5                	j	80001a3c <printf+0x62>
    80001b42:	000a2503          	lw	a0,0(s4)
    80001b46:	86ae                	mv	a3,a1
    80001b48:	06100793          	li	a5,97
    80001b4c:	4601                	li	a2,0
    80001b4e:	45a9                	li	a1,10
    80001b50:	c8dff0ef          	jal	ra,800017dc <qprinti.constprop.2>
    80001b54:	0a21                	addi	s4,s4,8
    80001b56:	01950cbb          	addw	s9,a0,s9
    80001b5a:	b5cd                	j	80001a3c <printf+0x62>
    80001b5c:	000a2503          	lw	a0,0(s4)
    80001b60:	06100793          	li	a5,97
    80001b64:	86ae                	mv	a3,a1
    80001b66:	4601                	li	a2,0
    80001b68:	45c1                	li	a1,16
    80001b6a:	c73ff0ef          	jal	ra,800017dc <qprinti.constprop.2>
    80001b6e:	0a21                	addi	s4,s4,8
    80001b70:	01950cbb          	addw	s9,a0,s9
    80001b74:	b5e1                	j	80001a3c <printf+0x62>
    80001b76:	000a2503          	lw	a0,0(s4)
    80001b7a:	04100793          	li	a5,65
    80001b7e:	b7dd                	j	80001b64 <printf+0x18a>
    80001b80:	855e                	mv	a0,s7
    80001b82:	bf69                	j	80001b1c <printf+0x142>

0000000080001b84 <puts>:
    80001b84:	00054683          	lbu	a3,0(a0)
    80001b88:	ca95                	beqz	a3,80001bbc <puts+0x38>
    80001b8a:	00150613          	addi	a2,a0,1
    80001b8e:	40000737          	lui	a4,0x40000
    80001b92:	4501                	li	a0,0
    80001b94:	2505                	addiw	a0,a0,1
    80001b96:	4b5c                	lw	a5,20(a4)
    80001b98:	0207f793          	andi	a5,a5,32
    80001b9c:	dfed                	beqz	a5,80001b96 <puts+0x12>
    80001b9e:	2681                	sext.w	a3,a3
    80001ba0:	c314                	sw	a3,0(a4)
    80001ba2:	0605                	addi	a2,a2,1
    80001ba4:	fff64683          	lbu	a3,-1(a2)
    80001ba8:	f6f5                	bnez	a3,80001b94 <puts+0x10>
    80001baa:	40000737          	lui	a4,0x40000
    80001bae:	4b5c                	lw	a5,20(a4)
    80001bb0:	0207f793          	andi	a5,a5,32
    80001bb4:	dfed                	beqz	a5,80001bae <puts+0x2a>
    80001bb6:	47a9                	li	a5,10
    80001bb8:	c31c                	sw	a5,0(a4)
    80001bba:	8082                	ret
    80001bbc:	4501                	li	a0,0
    80001bbe:	b7f5                	j	80001baa <puts+0x26>

0000000080001bc0 <uart_sim_cfg>:
    80001bc0:	400007b7          	lui	a5,0x40000
    80001bc4:	08300713          	li	a4,131
    80001bc8:	c7d8                	sw	a4,12(a5)
    80001bca:	0007a223          	sw	zero,4(a5) # 40000004 <_tbss_end+0x40000004>
    80001bce:	476d                	li	a4,27
    80001bd0:	c398                	sw	a4,0(a5)
    80001bd2:	0a700713          	li	a4,167
    80001bd6:	c798                	sw	a4,8(a5)
    80001bd8:	470d                	li	a4,3
    80001bda:	c7d8                	sw	a4,12(a5)
    80001bdc:	43d8                	lw	a4,4(a5)
    80001bde:	0f077713          	andi	a4,a4,240
    80001be2:	00276713          	ori	a4,a4,2
    80001be6:	c3d8                	sw	a4,4(a5)
    80001be8:	8082                	ret

0000000080001bea <alsaqr_periph_padframe_periphs_pad_gpio_b_00_cfg_chip2pad_set>:
    80001bea:	1a104737          	lui	a4,0x1a104
    80001bee:	431c                	lw	a5,0(a4)
    80001bf0:	00a03533          	snez	a0,a0
    80001bf4:	9bf9                	andi	a5,a5,-2
    80001bf6:	8fc9                	or	a5,a5,a0
    80001bf8:	c31c                	sw	a5,0(a4)
    80001bfa:	8082                	ret

0000000080001bfc <alsaqr_periph_padframe_periphs_pad_gpio_b_00_cfg_chip2pad_get>:
    80001bfc:	1a1047b7          	lui	a5,0x1a104
    80001c00:	4388                	lw	a0,0(a5)
    80001c02:	8905                	andi	a0,a0,1
    80001c04:	8082                	ret

0000000080001c06 <alsaqr_periph_padframe_periphs_pad_gpio_b_00_cfg_oen_set>:
    80001c06:	1a104737          	lui	a4,0x1a104
    80001c0a:	431c                	lw	a5,0(a4)
    80001c0c:	00a03533          	snez	a0,a0
    80001c10:	0015151b          	slliw	a0,a0,0x1
    80001c14:	9bf5                	andi	a5,a5,-3
    80001c16:	8fc9                	or	a5,a5,a0
    80001c18:	c31c                	sw	a5,0(a4)
    80001c1a:	8082                	ret

0000000080001c1c <alsaqr_periph_padframe_periphs_pad_gpio_b_00_cfg_oen_get>:
    80001c1c:	1a1047b7          	lui	a5,0x1a104
    80001c20:	4388                	lw	a0,0(a5)
    80001c22:	0015551b          	srliw	a0,a0,0x1
    80001c26:	8905                	andi	a0,a0,1
    80001c28:	8082                	ret

0000000080001c2a <alsaqr_periph_padframe_periphs_pad_gpio_b_00_cfg_puen_set>:
    80001c2a:	1a104737          	lui	a4,0x1a104
    80001c2e:	431c                	lw	a5,0(a4)
    80001c30:	00a03533          	snez	a0,a0
    80001c34:	0025151b          	slliw	a0,a0,0x2
    80001c38:	9bed                	andi	a5,a5,-5
    80001c3a:	8fc9                	or	a5,a5,a0
    80001c3c:	c31c                	sw	a5,0(a4)
    80001c3e:	8082                	ret

0000000080001c40 <alsaqr_periph_padframe_periphs_pad_gpio_b_00_cfg_puen_get>:
    80001c40:	1a1047b7          	lui	a5,0x1a104
    80001c44:	4388                	lw	a0,0(a5)
    80001c46:	0025551b          	srliw	a0,a0,0x2
    80001c4a:	8905                	andi	a0,a0,1
    80001c4c:	8082                	ret

0000000080001c4e <alsaqr_periph_padframe_periphs_pad_gpio_b_00_mux_set>:
    80001c4e:	890d                	andi	a0,a0,3
    80001c50:	1a1047b7          	lui	a5,0x1a104
    80001c54:	c3c8                	sw	a0,4(a5)
    80001c56:	8082                	ret

0000000080001c58 <alsaqr_periph_padframe_periphs_pad_gpio_b_00_mux_get>:
    80001c58:	1a1047b7          	lui	a5,0x1a104
    80001c5c:	43c8                	lw	a0,4(a5)
    80001c5e:	890d                	andi	a0,a0,3
    80001c60:	8082                	ret

0000000080001c62 <alsaqr_periph_padframe_periphs_pad_gpio_b_01_cfg_chip2pad_set>:
    80001c62:	1a104737          	lui	a4,0x1a104
    80001c66:	471c                	lw	a5,8(a4)
    80001c68:	00a03533          	snez	a0,a0
    80001c6c:	9bf9                	andi	a5,a5,-2
    80001c6e:	8fc9                	or	a5,a5,a0
    80001c70:	c71c                	sw	a5,8(a4)
    80001c72:	8082                	ret

0000000080001c74 <alsaqr_periph_padframe_periphs_pad_gpio_b_01_cfg_chip2pad_get>:
    80001c74:	1a1047b7          	lui	a5,0x1a104
    80001c78:	4788                	lw	a0,8(a5)
    80001c7a:	8905                	andi	a0,a0,1
    80001c7c:	8082                	ret

0000000080001c7e <alsaqr_periph_padframe_periphs_pad_gpio_b_01_cfg_oen_set>:
    80001c7e:	1a104737          	lui	a4,0x1a104
    80001c82:	471c                	lw	a5,8(a4)
    80001c84:	00a03533          	snez	a0,a0
    80001c88:	0015151b          	slliw	a0,a0,0x1
    80001c8c:	9bf5                	andi	a5,a5,-3
    80001c8e:	8fc9                	or	a5,a5,a0
    80001c90:	c71c                	sw	a5,8(a4)
    80001c92:	8082                	ret

0000000080001c94 <alsaqr_periph_padframe_periphs_pad_gpio_b_01_cfg_oen_get>:
    80001c94:	1a1047b7          	lui	a5,0x1a104
    80001c98:	4788                	lw	a0,8(a5)
    80001c9a:	0015551b          	srliw	a0,a0,0x1
    80001c9e:	8905                	andi	a0,a0,1
    80001ca0:	8082                	ret

0000000080001ca2 <alsaqr_periph_padframe_periphs_pad_gpio_b_01_cfg_puen_set>:
    80001ca2:	1a104737          	lui	a4,0x1a104
    80001ca6:	471c                	lw	a5,8(a4)
    80001ca8:	00a03533          	snez	a0,a0
    80001cac:	0025151b          	slliw	a0,a0,0x2
    80001cb0:	9bed                	andi	a5,a5,-5
    80001cb2:	8fc9                	or	a5,a5,a0
    80001cb4:	c71c                	sw	a5,8(a4)
    80001cb6:	8082                	ret

0000000080001cb8 <alsaqr_periph_padframe_periphs_pad_gpio_b_01_cfg_puen_get>:
    80001cb8:	1a1047b7          	lui	a5,0x1a104
    80001cbc:	4788                	lw	a0,8(a5)
    80001cbe:	0025551b          	srliw	a0,a0,0x2
    80001cc2:	8905                	andi	a0,a0,1
    80001cc4:	8082                	ret

0000000080001cc6 <alsaqr_periph_padframe_periphs_pad_gpio_b_01_mux_set>:
    80001cc6:	890d                	andi	a0,a0,3
    80001cc8:	1a1047b7          	lui	a5,0x1a104
    80001ccc:	c7c8                	sw	a0,12(a5)
    80001cce:	8082                	ret

0000000080001cd0 <alsaqr_periph_padframe_periphs_pad_gpio_b_01_mux_get>:
    80001cd0:	1a1047b7          	lui	a5,0x1a104
    80001cd4:	47c8                	lw	a0,12(a5)
    80001cd6:	890d                	andi	a0,a0,3
    80001cd8:	8082                	ret

0000000080001cda <alsaqr_periph_padframe_periphs_pad_gpio_b_02_cfg_chip2pad_set>:
    80001cda:	1a104737          	lui	a4,0x1a104
    80001cde:	4b1c                	lw	a5,16(a4)
    80001ce0:	00a03533          	snez	a0,a0
    80001ce4:	9bf9                	andi	a5,a5,-2
    80001ce6:	8fc9                	or	a5,a5,a0
    80001ce8:	cb1c                	sw	a5,16(a4)
    80001cea:	8082                	ret

0000000080001cec <alsaqr_periph_padframe_periphs_pad_gpio_b_02_cfg_chip2pad_get>:
    80001cec:	1a1047b7          	lui	a5,0x1a104
    80001cf0:	4b88                	lw	a0,16(a5)
    80001cf2:	8905                	andi	a0,a0,1
    80001cf4:	8082                	ret

0000000080001cf6 <alsaqr_periph_padframe_periphs_pad_gpio_b_02_cfg_oen_set>:
    80001cf6:	1a104737          	lui	a4,0x1a104
    80001cfa:	4b1c                	lw	a5,16(a4)
    80001cfc:	00a03533          	snez	a0,a0
    80001d00:	0015151b          	slliw	a0,a0,0x1
    80001d04:	9bf5                	andi	a5,a5,-3
    80001d06:	8fc9                	or	a5,a5,a0
    80001d08:	cb1c                	sw	a5,16(a4)
    80001d0a:	8082                	ret

0000000080001d0c <alsaqr_periph_padframe_periphs_pad_gpio_b_02_cfg_oen_get>:
    80001d0c:	1a1047b7          	lui	a5,0x1a104
    80001d10:	4b88                	lw	a0,16(a5)
    80001d12:	0015551b          	srliw	a0,a0,0x1
    80001d16:	8905                	andi	a0,a0,1
    80001d18:	8082                	ret

0000000080001d1a <alsaqr_periph_padframe_periphs_pad_gpio_b_02_cfg_puen_set>:
    80001d1a:	1a104737          	lui	a4,0x1a104
    80001d1e:	4b1c                	lw	a5,16(a4)
    80001d20:	00a03533          	snez	a0,a0
    80001d24:	0025151b          	slliw	a0,a0,0x2
    80001d28:	9bed                	andi	a5,a5,-5
    80001d2a:	8fc9                	or	a5,a5,a0
    80001d2c:	cb1c                	sw	a5,16(a4)
    80001d2e:	8082                	ret

0000000080001d30 <alsaqr_periph_padframe_periphs_pad_gpio_b_02_cfg_puen_get>:
    80001d30:	1a1047b7          	lui	a5,0x1a104
    80001d34:	4b88                	lw	a0,16(a5)
    80001d36:	0025551b          	srliw	a0,a0,0x2
    80001d3a:	8905                	andi	a0,a0,1
    80001d3c:	8082                	ret

0000000080001d3e <alsaqr_periph_padframe_periphs_pad_gpio_b_02_mux_set>:
    80001d3e:	890d                	andi	a0,a0,3
    80001d40:	1a1047b7          	lui	a5,0x1a104
    80001d44:	cbc8                	sw	a0,20(a5)
    80001d46:	8082                	ret

0000000080001d48 <alsaqr_periph_padframe_periphs_pad_gpio_b_02_mux_get>:
    80001d48:	1a1047b7          	lui	a5,0x1a104
    80001d4c:	4bc8                	lw	a0,20(a5)
    80001d4e:	890d                	andi	a0,a0,3
    80001d50:	8082                	ret

0000000080001d52 <alsaqr_periph_padframe_periphs_pad_gpio_b_03_cfg_chip2pad_set>:
    80001d52:	1a104737          	lui	a4,0x1a104
    80001d56:	4f1c                	lw	a5,24(a4)
    80001d58:	00a03533          	snez	a0,a0
    80001d5c:	9bf9                	andi	a5,a5,-2
    80001d5e:	8fc9                	or	a5,a5,a0
    80001d60:	cf1c                	sw	a5,24(a4)
    80001d62:	8082                	ret

0000000080001d64 <alsaqr_periph_padframe_periphs_pad_gpio_b_03_cfg_chip2pad_get>:
    80001d64:	1a1047b7          	lui	a5,0x1a104
    80001d68:	4f88                	lw	a0,24(a5)
    80001d6a:	8905                	andi	a0,a0,1
    80001d6c:	8082                	ret

0000000080001d6e <alsaqr_periph_padframe_periphs_pad_gpio_b_03_cfg_oen_set>:
    80001d6e:	1a104737          	lui	a4,0x1a104
    80001d72:	4f1c                	lw	a5,24(a4)
    80001d74:	00a03533          	snez	a0,a0
    80001d78:	0015151b          	slliw	a0,a0,0x1
    80001d7c:	9bf5                	andi	a5,a5,-3
    80001d7e:	8fc9                	or	a5,a5,a0
    80001d80:	cf1c                	sw	a5,24(a4)
    80001d82:	8082                	ret

0000000080001d84 <alsaqr_periph_padframe_periphs_pad_gpio_b_03_cfg_oen_get>:
    80001d84:	1a1047b7          	lui	a5,0x1a104
    80001d88:	4f88                	lw	a0,24(a5)
    80001d8a:	0015551b          	srliw	a0,a0,0x1
    80001d8e:	8905                	andi	a0,a0,1
    80001d90:	8082                	ret

0000000080001d92 <alsaqr_periph_padframe_periphs_pad_gpio_b_03_cfg_puen_set>:
    80001d92:	1a104737          	lui	a4,0x1a104
    80001d96:	4f1c                	lw	a5,24(a4)
    80001d98:	00a03533          	snez	a0,a0
    80001d9c:	0025151b          	slliw	a0,a0,0x2
    80001da0:	9bed                	andi	a5,a5,-5
    80001da2:	8fc9                	or	a5,a5,a0
    80001da4:	cf1c                	sw	a5,24(a4)
    80001da6:	8082                	ret

0000000080001da8 <alsaqr_periph_padframe_periphs_pad_gpio_b_03_cfg_puen_get>:
    80001da8:	1a1047b7          	lui	a5,0x1a104
    80001dac:	4f88                	lw	a0,24(a5)
    80001dae:	0025551b          	srliw	a0,a0,0x2
    80001db2:	8905                	andi	a0,a0,1
    80001db4:	8082                	ret

0000000080001db6 <alsaqr_periph_padframe_periphs_pad_gpio_b_03_mux_set>:
    80001db6:	890d                	andi	a0,a0,3
    80001db8:	1a1047b7          	lui	a5,0x1a104
    80001dbc:	cfc8                	sw	a0,28(a5)
    80001dbe:	8082                	ret

0000000080001dc0 <alsaqr_periph_padframe_periphs_pad_gpio_b_03_mux_get>:
    80001dc0:	1a1047b7          	lui	a5,0x1a104
    80001dc4:	4fc8                	lw	a0,28(a5)
    80001dc6:	890d                	andi	a0,a0,3
    80001dc8:	8082                	ret

0000000080001dca <alsaqr_periph_padframe_periphs_pad_gpio_b_04_cfg_chip2pad_set>:
    80001dca:	1a104737          	lui	a4,0x1a104
    80001dce:	531c                	lw	a5,32(a4)
    80001dd0:	00a03533          	snez	a0,a0
    80001dd4:	9bf9                	andi	a5,a5,-2
    80001dd6:	8fc9                	or	a5,a5,a0
    80001dd8:	d31c                	sw	a5,32(a4)
    80001dda:	8082                	ret

0000000080001ddc <alsaqr_periph_padframe_periphs_pad_gpio_b_04_cfg_chip2pad_get>:
    80001ddc:	1a1047b7          	lui	a5,0x1a104
    80001de0:	5388                	lw	a0,32(a5)
    80001de2:	8905                	andi	a0,a0,1
    80001de4:	8082                	ret

0000000080001de6 <alsaqr_periph_padframe_periphs_pad_gpio_b_04_cfg_oen_set>:
    80001de6:	1a104737          	lui	a4,0x1a104
    80001dea:	531c                	lw	a5,32(a4)
    80001dec:	00a03533          	snez	a0,a0
    80001df0:	0015151b          	slliw	a0,a0,0x1
    80001df4:	9bf5                	andi	a5,a5,-3
    80001df6:	8fc9                	or	a5,a5,a0
    80001df8:	d31c                	sw	a5,32(a4)
    80001dfa:	8082                	ret

0000000080001dfc <alsaqr_periph_padframe_periphs_pad_gpio_b_04_cfg_oen_get>:
    80001dfc:	1a1047b7          	lui	a5,0x1a104
    80001e00:	5388                	lw	a0,32(a5)
    80001e02:	0015551b          	srliw	a0,a0,0x1
    80001e06:	8905                	andi	a0,a0,1
    80001e08:	8082                	ret

0000000080001e0a <alsaqr_periph_padframe_periphs_pad_gpio_b_04_cfg_puen_set>:
    80001e0a:	1a104737          	lui	a4,0x1a104
    80001e0e:	531c                	lw	a5,32(a4)
    80001e10:	00a03533          	snez	a0,a0
    80001e14:	0025151b          	slliw	a0,a0,0x2
    80001e18:	9bed                	andi	a5,a5,-5
    80001e1a:	8fc9                	or	a5,a5,a0
    80001e1c:	d31c                	sw	a5,32(a4)
    80001e1e:	8082                	ret

0000000080001e20 <alsaqr_periph_padframe_periphs_pad_gpio_b_04_cfg_puen_get>:
    80001e20:	1a1047b7          	lui	a5,0x1a104
    80001e24:	5388                	lw	a0,32(a5)
    80001e26:	0025551b          	srliw	a0,a0,0x2
    80001e2a:	8905                	andi	a0,a0,1
    80001e2c:	8082                	ret

0000000080001e2e <alsaqr_periph_padframe_periphs_pad_gpio_b_04_mux_set>:
    80001e2e:	890d                	andi	a0,a0,3
    80001e30:	1a1047b7          	lui	a5,0x1a104
    80001e34:	d3c8                	sw	a0,36(a5)
    80001e36:	8082                	ret

0000000080001e38 <alsaqr_periph_padframe_periphs_pad_gpio_b_04_mux_get>:
    80001e38:	1a1047b7          	lui	a5,0x1a104
    80001e3c:	53c8                	lw	a0,36(a5)
    80001e3e:	890d                	andi	a0,a0,3
    80001e40:	8082                	ret

0000000080001e42 <alsaqr_periph_padframe_periphs_pad_gpio_b_05_cfg_chip2pad_set>:
    80001e42:	1a104737          	lui	a4,0x1a104
    80001e46:	571c                	lw	a5,40(a4)
    80001e48:	00a03533          	snez	a0,a0
    80001e4c:	9bf9                	andi	a5,a5,-2
    80001e4e:	8fc9                	or	a5,a5,a0
    80001e50:	d71c                	sw	a5,40(a4)
    80001e52:	8082                	ret

0000000080001e54 <alsaqr_periph_padframe_periphs_pad_gpio_b_05_cfg_chip2pad_get>:
    80001e54:	1a1047b7          	lui	a5,0x1a104
    80001e58:	5788                	lw	a0,40(a5)
    80001e5a:	8905                	andi	a0,a0,1
    80001e5c:	8082                	ret

0000000080001e5e <alsaqr_periph_padframe_periphs_pad_gpio_b_05_cfg_oen_set>:
    80001e5e:	1a104737          	lui	a4,0x1a104
    80001e62:	571c                	lw	a5,40(a4)
    80001e64:	00a03533          	snez	a0,a0
    80001e68:	0015151b          	slliw	a0,a0,0x1
    80001e6c:	9bf5                	andi	a5,a5,-3
    80001e6e:	8fc9                	or	a5,a5,a0
    80001e70:	d71c                	sw	a5,40(a4)
    80001e72:	8082                	ret

0000000080001e74 <alsaqr_periph_padframe_periphs_pad_gpio_b_05_cfg_oen_get>:
    80001e74:	1a1047b7          	lui	a5,0x1a104
    80001e78:	5788                	lw	a0,40(a5)
    80001e7a:	0015551b          	srliw	a0,a0,0x1
    80001e7e:	8905                	andi	a0,a0,1
    80001e80:	8082                	ret

0000000080001e82 <alsaqr_periph_padframe_periphs_pad_gpio_b_05_cfg_puen_set>:
    80001e82:	1a104737          	lui	a4,0x1a104
    80001e86:	571c                	lw	a5,40(a4)
    80001e88:	00a03533          	snez	a0,a0
    80001e8c:	0025151b          	slliw	a0,a0,0x2
    80001e90:	9bed                	andi	a5,a5,-5
    80001e92:	8fc9                	or	a5,a5,a0
    80001e94:	d71c                	sw	a5,40(a4)
    80001e96:	8082                	ret

0000000080001e98 <alsaqr_periph_padframe_periphs_pad_gpio_b_05_cfg_puen_get>:
    80001e98:	1a1047b7          	lui	a5,0x1a104
    80001e9c:	5788                	lw	a0,40(a5)
    80001e9e:	0025551b          	srliw	a0,a0,0x2
    80001ea2:	8905                	andi	a0,a0,1
    80001ea4:	8082                	ret

0000000080001ea6 <alsaqr_periph_padframe_periphs_pad_gpio_b_05_mux_set>:
    80001ea6:	890d                	andi	a0,a0,3
    80001ea8:	1a1047b7          	lui	a5,0x1a104
    80001eac:	d7c8                	sw	a0,44(a5)
    80001eae:	8082                	ret

0000000080001eb0 <alsaqr_periph_padframe_periphs_pad_gpio_b_05_mux_get>:
    80001eb0:	1a1047b7          	lui	a5,0x1a104
    80001eb4:	57c8                	lw	a0,44(a5)
    80001eb6:	890d                	andi	a0,a0,3
    80001eb8:	8082                	ret

0000000080001eba <alsaqr_periph_padframe_periphs_pad_gpio_b_06_cfg_chip2pad_set>:
    80001eba:	1a104737          	lui	a4,0x1a104
    80001ebe:	5b1c                	lw	a5,48(a4)
    80001ec0:	00a03533          	snez	a0,a0
    80001ec4:	9bf9                	andi	a5,a5,-2
    80001ec6:	8fc9                	or	a5,a5,a0
    80001ec8:	db1c                	sw	a5,48(a4)
    80001eca:	8082                	ret

0000000080001ecc <alsaqr_periph_padframe_periphs_pad_gpio_b_06_cfg_chip2pad_get>:
    80001ecc:	1a1047b7          	lui	a5,0x1a104
    80001ed0:	5b88                	lw	a0,48(a5)
    80001ed2:	8905                	andi	a0,a0,1
    80001ed4:	8082                	ret

0000000080001ed6 <alsaqr_periph_padframe_periphs_pad_gpio_b_06_cfg_oen_set>:
    80001ed6:	1a104737          	lui	a4,0x1a104
    80001eda:	5b1c                	lw	a5,48(a4)
    80001edc:	00a03533          	snez	a0,a0
    80001ee0:	0015151b          	slliw	a0,a0,0x1
    80001ee4:	9bf5                	andi	a5,a5,-3
    80001ee6:	8fc9                	or	a5,a5,a0
    80001ee8:	db1c                	sw	a5,48(a4)
    80001eea:	8082                	ret

0000000080001eec <alsaqr_periph_padframe_periphs_pad_gpio_b_06_cfg_oen_get>:
    80001eec:	1a1047b7          	lui	a5,0x1a104
    80001ef0:	5b88                	lw	a0,48(a5)
    80001ef2:	0015551b          	srliw	a0,a0,0x1
    80001ef6:	8905                	andi	a0,a0,1
    80001ef8:	8082                	ret

0000000080001efa <alsaqr_periph_padframe_periphs_pad_gpio_b_06_cfg_puen_set>:
    80001efa:	1a104737          	lui	a4,0x1a104
    80001efe:	5b1c                	lw	a5,48(a4)
    80001f00:	00a03533          	snez	a0,a0
    80001f04:	0025151b          	slliw	a0,a0,0x2
    80001f08:	9bed                	andi	a5,a5,-5
    80001f0a:	8fc9                	or	a5,a5,a0
    80001f0c:	db1c                	sw	a5,48(a4)
    80001f0e:	8082                	ret

0000000080001f10 <alsaqr_periph_padframe_periphs_pad_gpio_b_06_cfg_puen_get>:
    80001f10:	1a1047b7          	lui	a5,0x1a104
    80001f14:	5b88                	lw	a0,48(a5)
    80001f16:	0025551b          	srliw	a0,a0,0x2
    80001f1a:	8905                	andi	a0,a0,1
    80001f1c:	8082                	ret

0000000080001f1e <alsaqr_periph_padframe_periphs_pad_gpio_b_06_mux_set>:
    80001f1e:	890d                	andi	a0,a0,3
    80001f20:	1a1047b7          	lui	a5,0x1a104
    80001f24:	dbc8                	sw	a0,52(a5)
    80001f26:	8082                	ret

0000000080001f28 <alsaqr_periph_padframe_periphs_pad_gpio_b_06_mux_get>:
    80001f28:	1a1047b7          	lui	a5,0x1a104
    80001f2c:	5bc8                	lw	a0,52(a5)
    80001f2e:	890d                	andi	a0,a0,3
    80001f30:	8082                	ret

0000000080001f32 <alsaqr_periph_padframe_periphs_pad_gpio_b_07_cfg_chip2pad_set>:
    80001f32:	1a104737          	lui	a4,0x1a104
    80001f36:	5f1c                	lw	a5,56(a4)
    80001f38:	00a03533          	snez	a0,a0
    80001f3c:	9bf9                	andi	a5,a5,-2
    80001f3e:	8fc9                	or	a5,a5,a0
    80001f40:	df1c                	sw	a5,56(a4)
    80001f42:	8082                	ret

0000000080001f44 <alsaqr_periph_padframe_periphs_pad_gpio_b_07_cfg_chip2pad_get>:
    80001f44:	1a1047b7          	lui	a5,0x1a104
    80001f48:	5f88                	lw	a0,56(a5)
    80001f4a:	8905                	andi	a0,a0,1
    80001f4c:	8082                	ret

0000000080001f4e <alsaqr_periph_padframe_periphs_pad_gpio_b_07_cfg_oen_set>:
    80001f4e:	1a104737          	lui	a4,0x1a104
    80001f52:	5f1c                	lw	a5,56(a4)
    80001f54:	00a03533          	snez	a0,a0
    80001f58:	0015151b          	slliw	a0,a0,0x1
    80001f5c:	9bf5                	andi	a5,a5,-3
    80001f5e:	8fc9                	or	a5,a5,a0
    80001f60:	df1c                	sw	a5,56(a4)
    80001f62:	8082                	ret

0000000080001f64 <alsaqr_periph_padframe_periphs_pad_gpio_b_07_cfg_oen_get>:
    80001f64:	1a1047b7          	lui	a5,0x1a104
    80001f68:	5f88                	lw	a0,56(a5)
    80001f6a:	0015551b          	srliw	a0,a0,0x1
    80001f6e:	8905                	andi	a0,a0,1
    80001f70:	8082                	ret

0000000080001f72 <alsaqr_periph_padframe_periphs_pad_gpio_b_07_cfg_puen_set>:
    80001f72:	1a104737          	lui	a4,0x1a104
    80001f76:	5f1c                	lw	a5,56(a4)
    80001f78:	00a03533          	snez	a0,a0
    80001f7c:	0025151b          	slliw	a0,a0,0x2
    80001f80:	9bed                	andi	a5,a5,-5
    80001f82:	8fc9                	or	a5,a5,a0
    80001f84:	df1c                	sw	a5,56(a4)
    80001f86:	8082                	ret

0000000080001f88 <alsaqr_periph_padframe_periphs_pad_gpio_b_07_cfg_puen_get>:
    80001f88:	1a1047b7          	lui	a5,0x1a104
    80001f8c:	5f88                	lw	a0,56(a5)
    80001f8e:	0025551b          	srliw	a0,a0,0x2
    80001f92:	8905                	andi	a0,a0,1
    80001f94:	8082                	ret

0000000080001f96 <alsaqr_periph_padframe_periphs_pad_gpio_b_07_mux_set>:
    80001f96:	890d                	andi	a0,a0,3
    80001f98:	1a1047b7          	lui	a5,0x1a104
    80001f9c:	dfc8                	sw	a0,60(a5)
    80001f9e:	8082                	ret

0000000080001fa0 <alsaqr_periph_padframe_periphs_pad_gpio_b_07_mux_get>:
    80001fa0:	1a1047b7          	lui	a5,0x1a104
    80001fa4:	5fc8                	lw	a0,60(a5)
    80001fa6:	890d                	andi	a0,a0,3
    80001fa8:	8082                	ret

0000000080001faa <alsaqr_periph_padframe_periphs_pad_gpio_b_08_cfg_chip2pad_set>:
    80001faa:	1a104737          	lui	a4,0x1a104
    80001fae:	433c                	lw	a5,64(a4)
    80001fb0:	00a03533          	snez	a0,a0
    80001fb4:	9bf9                	andi	a5,a5,-2
    80001fb6:	8fc9                	or	a5,a5,a0
    80001fb8:	c33c                	sw	a5,64(a4)
    80001fba:	8082                	ret

0000000080001fbc <alsaqr_periph_padframe_periphs_pad_gpio_b_08_cfg_chip2pad_get>:
    80001fbc:	1a1047b7          	lui	a5,0x1a104
    80001fc0:	43a8                	lw	a0,64(a5)
    80001fc2:	8905                	andi	a0,a0,1
    80001fc4:	8082                	ret

0000000080001fc6 <alsaqr_periph_padframe_periphs_pad_gpio_b_08_cfg_oen_set>:
    80001fc6:	1a104737          	lui	a4,0x1a104
    80001fca:	433c                	lw	a5,64(a4)
    80001fcc:	00a03533          	snez	a0,a0
    80001fd0:	0015151b          	slliw	a0,a0,0x1
    80001fd4:	9bf5                	andi	a5,a5,-3
    80001fd6:	8fc9                	or	a5,a5,a0
    80001fd8:	c33c                	sw	a5,64(a4)
    80001fda:	8082                	ret

0000000080001fdc <alsaqr_periph_padframe_periphs_pad_gpio_b_08_cfg_oen_get>:
    80001fdc:	1a1047b7          	lui	a5,0x1a104
    80001fe0:	43a8                	lw	a0,64(a5)
    80001fe2:	0015551b          	srliw	a0,a0,0x1
    80001fe6:	8905                	andi	a0,a0,1
    80001fe8:	8082                	ret

0000000080001fea <alsaqr_periph_padframe_periphs_pad_gpio_b_08_cfg_puen_set>:
    80001fea:	1a104737          	lui	a4,0x1a104
    80001fee:	433c                	lw	a5,64(a4)
    80001ff0:	00a03533          	snez	a0,a0
    80001ff4:	0025151b          	slliw	a0,a0,0x2
    80001ff8:	9bed                	andi	a5,a5,-5
    80001ffa:	8fc9                	or	a5,a5,a0
    80001ffc:	c33c                	sw	a5,64(a4)
    80001ffe:	8082                	ret

0000000080002000 <alsaqr_periph_padframe_periphs_pad_gpio_b_08_cfg_puen_get>:
    80002000:	1a1047b7          	lui	a5,0x1a104
    80002004:	43a8                	lw	a0,64(a5)
    80002006:	0025551b          	srliw	a0,a0,0x2
    8000200a:	8905                	andi	a0,a0,1
    8000200c:	8082                	ret

000000008000200e <alsaqr_periph_padframe_periphs_pad_gpio_b_08_mux_set>:
    8000200e:	890d                	andi	a0,a0,3
    80002010:	1a1047b7          	lui	a5,0x1a104
    80002014:	c3e8                	sw	a0,68(a5)
    80002016:	8082                	ret

0000000080002018 <alsaqr_periph_padframe_periphs_pad_gpio_b_08_mux_get>:
    80002018:	1a1047b7          	lui	a5,0x1a104
    8000201c:	43e8                	lw	a0,68(a5)
    8000201e:	890d                	andi	a0,a0,3
    80002020:	8082                	ret

0000000080002022 <alsaqr_periph_padframe_periphs_pad_gpio_b_09_cfg_chip2pad_set>:
    80002022:	1a104737          	lui	a4,0x1a104
    80002026:	473c                	lw	a5,72(a4)
    80002028:	00a03533          	snez	a0,a0
    8000202c:	9bf9                	andi	a5,a5,-2
    8000202e:	8fc9                	or	a5,a5,a0
    80002030:	c73c                	sw	a5,72(a4)
    80002032:	8082                	ret

0000000080002034 <alsaqr_periph_padframe_periphs_pad_gpio_b_09_cfg_chip2pad_get>:
    80002034:	1a1047b7          	lui	a5,0x1a104
    80002038:	47a8                	lw	a0,72(a5)
    8000203a:	8905                	andi	a0,a0,1
    8000203c:	8082                	ret

000000008000203e <alsaqr_periph_padframe_periphs_pad_gpio_b_09_cfg_oen_set>:
    8000203e:	1a104737          	lui	a4,0x1a104
    80002042:	473c                	lw	a5,72(a4)
    80002044:	00a03533          	snez	a0,a0
    80002048:	0015151b          	slliw	a0,a0,0x1
    8000204c:	9bf5                	andi	a5,a5,-3
    8000204e:	8fc9                	or	a5,a5,a0
    80002050:	c73c                	sw	a5,72(a4)
    80002052:	8082                	ret

0000000080002054 <alsaqr_periph_padframe_periphs_pad_gpio_b_09_cfg_oen_get>:
    80002054:	1a1047b7          	lui	a5,0x1a104
    80002058:	47a8                	lw	a0,72(a5)
    8000205a:	0015551b          	srliw	a0,a0,0x1
    8000205e:	8905                	andi	a0,a0,1
    80002060:	8082                	ret

0000000080002062 <alsaqr_periph_padframe_periphs_pad_gpio_b_09_cfg_puen_set>:
    80002062:	1a104737          	lui	a4,0x1a104
    80002066:	473c                	lw	a5,72(a4)
    80002068:	00a03533          	snez	a0,a0
    8000206c:	0025151b          	slliw	a0,a0,0x2
    80002070:	9bed                	andi	a5,a5,-5
    80002072:	8fc9                	or	a5,a5,a0
    80002074:	c73c                	sw	a5,72(a4)
    80002076:	8082                	ret

0000000080002078 <alsaqr_periph_padframe_periphs_pad_gpio_b_09_cfg_puen_get>:
    80002078:	1a1047b7          	lui	a5,0x1a104
    8000207c:	47a8                	lw	a0,72(a5)
    8000207e:	0025551b          	srliw	a0,a0,0x2
    80002082:	8905                	andi	a0,a0,1
    80002084:	8082                	ret

0000000080002086 <alsaqr_periph_padframe_periphs_pad_gpio_b_09_mux_set>:
    80002086:	890d                	andi	a0,a0,3
    80002088:	1a1047b7          	lui	a5,0x1a104
    8000208c:	c7e8                	sw	a0,76(a5)
    8000208e:	8082                	ret

0000000080002090 <alsaqr_periph_padframe_periphs_pad_gpio_b_09_mux_get>:
    80002090:	1a1047b7          	lui	a5,0x1a104
    80002094:	47e8                	lw	a0,76(a5)
    80002096:	890d                	andi	a0,a0,3
    80002098:	8082                	ret

000000008000209a <alsaqr_periph_padframe_periphs_pad_gpio_b_10_cfg_chip2pad_set>:
    8000209a:	1a104737          	lui	a4,0x1a104
    8000209e:	4b3c                	lw	a5,80(a4)
    800020a0:	00a03533          	snez	a0,a0
    800020a4:	9bf9                	andi	a5,a5,-2
    800020a6:	8fc9                	or	a5,a5,a0
    800020a8:	cb3c                	sw	a5,80(a4)
    800020aa:	8082                	ret

00000000800020ac <alsaqr_periph_padframe_periphs_pad_gpio_b_10_cfg_chip2pad_get>:
    800020ac:	1a1047b7          	lui	a5,0x1a104
    800020b0:	4ba8                	lw	a0,80(a5)
    800020b2:	8905                	andi	a0,a0,1
    800020b4:	8082                	ret

00000000800020b6 <alsaqr_periph_padframe_periphs_pad_gpio_b_10_cfg_oen_set>:
    800020b6:	1a104737          	lui	a4,0x1a104
    800020ba:	4b3c                	lw	a5,80(a4)
    800020bc:	00a03533          	snez	a0,a0
    800020c0:	0015151b          	slliw	a0,a0,0x1
    800020c4:	9bf5                	andi	a5,a5,-3
    800020c6:	8fc9                	or	a5,a5,a0
    800020c8:	cb3c                	sw	a5,80(a4)
    800020ca:	8082                	ret

00000000800020cc <alsaqr_periph_padframe_periphs_pad_gpio_b_10_cfg_oen_get>:
    800020cc:	1a1047b7          	lui	a5,0x1a104
    800020d0:	4ba8                	lw	a0,80(a5)
    800020d2:	0015551b          	srliw	a0,a0,0x1
    800020d6:	8905                	andi	a0,a0,1
    800020d8:	8082                	ret

00000000800020da <alsaqr_periph_padframe_periphs_pad_gpio_b_10_cfg_puen_set>:
    800020da:	1a104737          	lui	a4,0x1a104
    800020de:	4b3c                	lw	a5,80(a4)
    800020e0:	00a03533          	snez	a0,a0
    800020e4:	0025151b          	slliw	a0,a0,0x2
    800020e8:	9bed                	andi	a5,a5,-5
    800020ea:	8fc9                	or	a5,a5,a0
    800020ec:	cb3c                	sw	a5,80(a4)
    800020ee:	8082                	ret

00000000800020f0 <alsaqr_periph_padframe_periphs_pad_gpio_b_10_cfg_puen_get>:
    800020f0:	1a1047b7          	lui	a5,0x1a104
    800020f4:	4ba8                	lw	a0,80(a5)
    800020f6:	0025551b          	srliw	a0,a0,0x2
    800020fa:	8905                	andi	a0,a0,1
    800020fc:	8082                	ret

00000000800020fe <alsaqr_periph_padframe_periphs_pad_gpio_b_10_mux_set>:
    800020fe:	890d                	andi	a0,a0,3
    80002100:	1a1047b7          	lui	a5,0x1a104
    80002104:	cbe8                	sw	a0,84(a5)
    80002106:	8082                	ret

0000000080002108 <alsaqr_periph_padframe_periphs_pad_gpio_b_10_mux_get>:
    80002108:	1a1047b7          	lui	a5,0x1a104
    8000210c:	4be8                	lw	a0,84(a5)
    8000210e:	890d                	andi	a0,a0,3
    80002110:	8082                	ret

0000000080002112 <alsaqr_periph_padframe_periphs_pad_gpio_b_11_cfg_chip2pad_set>:
    80002112:	1a104737          	lui	a4,0x1a104
    80002116:	4f3c                	lw	a5,88(a4)
    80002118:	00a03533          	snez	a0,a0
    8000211c:	9bf9                	andi	a5,a5,-2
    8000211e:	8fc9                	or	a5,a5,a0
    80002120:	cf3c                	sw	a5,88(a4)
    80002122:	8082                	ret

0000000080002124 <alsaqr_periph_padframe_periphs_pad_gpio_b_11_cfg_chip2pad_get>:
    80002124:	1a1047b7          	lui	a5,0x1a104
    80002128:	4fa8                	lw	a0,88(a5)
    8000212a:	8905                	andi	a0,a0,1
    8000212c:	8082                	ret

000000008000212e <alsaqr_periph_padframe_periphs_pad_gpio_b_11_cfg_oen_set>:
    8000212e:	1a104737          	lui	a4,0x1a104
    80002132:	4f3c                	lw	a5,88(a4)
    80002134:	00a03533          	snez	a0,a0
    80002138:	0015151b          	slliw	a0,a0,0x1
    8000213c:	9bf5                	andi	a5,a5,-3
    8000213e:	8fc9                	or	a5,a5,a0
    80002140:	cf3c                	sw	a5,88(a4)
    80002142:	8082                	ret

0000000080002144 <alsaqr_periph_padframe_periphs_pad_gpio_b_11_cfg_oen_get>:
    80002144:	1a1047b7          	lui	a5,0x1a104
    80002148:	4fa8                	lw	a0,88(a5)
    8000214a:	0015551b          	srliw	a0,a0,0x1
    8000214e:	8905                	andi	a0,a0,1
    80002150:	8082                	ret

0000000080002152 <alsaqr_periph_padframe_periphs_pad_gpio_b_11_cfg_puen_set>:
    80002152:	1a104737          	lui	a4,0x1a104
    80002156:	4f3c                	lw	a5,88(a4)
    80002158:	00a03533          	snez	a0,a0
    8000215c:	0025151b          	slliw	a0,a0,0x2
    80002160:	9bed                	andi	a5,a5,-5
    80002162:	8fc9                	or	a5,a5,a0
    80002164:	cf3c                	sw	a5,88(a4)
    80002166:	8082                	ret

0000000080002168 <alsaqr_periph_padframe_periphs_pad_gpio_b_11_cfg_puen_get>:
    80002168:	1a1047b7          	lui	a5,0x1a104
    8000216c:	4fa8                	lw	a0,88(a5)
    8000216e:	0025551b          	srliw	a0,a0,0x2
    80002172:	8905                	andi	a0,a0,1
    80002174:	8082                	ret

0000000080002176 <alsaqr_periph_padframe_periphs_pad_gpio_b_11_mux_set>:
    80002176:	890d                	andi	a0,a0,3
    80002178:	1a1047b7          	lui	a5,0x1a104
    8000217c:	cfe8                	sw	a0,92(a5)
    8000217e:	8082                	ret

0000000080002180 <alsaqr_periph_padframe_periphs_pad_gpio_b_11_mux_get>:
    80002180:	1a1047b7          	lui	a5,0x1a104
    80002184:	4fe8                	lw	a0,92(a5)
    80002186:	890d                	andi	a0,a0,3
    80002188:	8082                	ret

000000008000218a <alsaqr_periph_padframe_periphs_pad_gpio_b_12_cfg_chip2pad_set>:
    8000218a:	1a104737          	lui	a4,0x1a104
    8000218e:	533c                	lw	a5,96(a4)
    80002190:	00a03533          	snez	a0,a0
    80002194:	9bf9                	andi	a5,a5,-2
    80002196:	8fc9                	or	a5,a5,a0
    80002198:	d33c                	sw	a5,96(a4)
    8000219a:	8082                	ret

000000008000219c <alsaqr_periph_padframe_periphs_pad_gpio_b_12_cfg_chip2pad_get>:
    8000219c:	1a1047b7          	lui	a5,0x1a104
    800021a0:	53a8                	lw	a0,96(a5)
    800021a2:	8905                	andi	a0,a0,1
    800021a4:	8082                	ret

00000000800021a6 <alsaqr_periph_padframe_periphs_pad_gpio_b_12_cfg_oen_set>:
    800021a6:	1a104737          	lui	a4,0x1a104
    800021aa:	533c                	lw	a5,96(a4)
    800021ac:	00a03533          	snez	a0,a0
    800021b0:	0015151b          	slliw	a0,a0,0x1
    800021b4:	9bf5                	andi	a5,a5,-3
    800021b6:	8fc9                	or	a5,a5,a0
    800021b8:	d33c                	sw	a5,96(a4)
    800021ba:	8082                	ret

00000000800021bc <alsaqr_periph_padframe_periphs_pad_gpio_b_12_cfg_oen_get>:
    800021bc:	1a1047b7          	lui	a5,0x1a104
    800021c0:	53a8                	lw	a0,96(a5)
    800021c2:	0015551b          	srliw	a0,a0,0x1
    800021c6:	8905                	andi	a0,a0,1
    800021c8:	8082                	ret

00000000800021ca <alsaqr_periph_padframe_periphs_pad_gpio_b_12_cfg_puen_set>:
    800021ca:	1a104737          	lui	a4,0x1a104
    800021ce:	533c                	lw	a5,96(a4)
    800021d0:	00a03533          	snez	a0,a0
    800021d4:	0025151b          	slliw	a0,a0,0x2
    800021d8:	9bed                	andi	a5,a5,-5
    800021da:	8fc9                	or	a5,a5,a0
    800021dc:	d33c                	sw	a5,96(a4)
    800021de:	8082                	ret

00000000800021e0 <alsaqr_periph_padframe_periphs_pad_gpio_b_12_cfg_puen_get>:
    800021e0:	1a1047b7          	lui	a5,0x1a104
    800021e4:	53a8                	lw	a0,96(a5)
    800021e6:	0025551b          	srliw	a0,a0,0x2
    800021ea:	8905                	andi	a0,a0,1
    800021ec:	8082                	ret

00000000800021ee <alsaqr_periph_padframe_periphs_pad_gpio_b_12_mux_set>:
    800021ee:	890d                	andi	a0,a0,3
    800021f0:	1a1047b7          	lui	a5,0x1a104
    800021f4:	d3e8                	sw	a0,100(a5)
    800021f6:	8082                	ret

00000000800021f8 <alsaqr_periph_padframe_periphs_pad_gpio_b_12_mux_get>:
    800021f8:	1a1047b7          	lui	a5,0x1a104
    800021fc:	53e8                	lw	a0,100(a5)
    800021fe:	890d                	andi	a0,a0,3
    80002200:	8082                	ret

0000000080002202 <alsaqr_periph_padframe_periphs_pad_gpio_b_13_cfg_chip2pad_set>:
    80002202:	1a104737          	lui	a4,0x1a104
    80002206:	573c                	lw	a5,104(a4)
    80002208:	00a03533          	snez	a0,a0
    8000220c:	9bf9                	andi	a5,a5,-2
    8000220e:	8fc9                	or	a5,a5,a0
    80002210:	d73c                	sw	a5,104(a4)
    80002212:	8082                	ret

0000000080002214 <alsaqr_periph_padframe_periphs_pad_gpio_b_13_cfg_chip2pad_get>:
    80002214:	1a1047b7          	lui	a5,0x1a104
    80002218:	57a8                	lw	a0,104(a5)
    8000221a:	8905                	andi	a0,a0,1
    8000221c:	8082                	ret

000000008000221e <alsaqr_periph_padframe_periphs_pad_gpio_b_13_cfg_oen_set>:
    8000221e:	1a104737          	lui	a4,0x1a104
    80002222:	573c                	lw	a5,104(a4)
    80002224:	00a03533          	snez	a0,a0
    80002228:	0015151b          	slliw	a0,a0,0x1
    8000222c:	9bf5                	andi	a5,a5,-3
    8000222e:	8fc9                	or	a5,a5,a0
    80002230:	d73c                	sw	a5,104(a4)
    80002232:	8082                	ret

0000000080002234 <alsaqr_periph_padframe_periphs_pad_gpio_b_13_cfg_oen_get>:
    80002234:	1a1047b7          	lui	a5,0x1a104
    80002238:	57a8                	lw	a0,104(a5)
    8000223a:	0015551b          	srliw	a0,a0,0x1
    8000223e:	8905                	andi	a0,a0,1
    80002240:	8082                	ret

0000000080002242 <alsaqr_periph_padframe_periphs_pad_gpio_b_13_cfg_puen_set>:
    80002242:	1a104737          	lui	a4,0x1a104
    80002246:	573c                	lw	a5,104(a4)
    80002248:	00a03533          	snez	a0,a0
    8000224c:	0025151b          	slliw	a0,a0,0x2
    80002250:	9bed                	andi	a5,a5,-5
    80002252:	8fc9                	or	a5,a5,a0
    80002254:	d73c                	sw	a5,104(a4)
    80002256:	8082                	ret

0000000080002258 <alsaqr_periph_padframe_periphs_pad_gpio_b_13_cfg_puen_get>:
    80002258:	1a1047b7          	lui	a5,0x1a104
    8000225c:	57a8                	lw	a0,104(a5)
    8000225e:	0025551b          	srliw	a0,a0,0x2
    80002262:	8905                	andi	a0,a0,1
    80002264:	8082                	ret

0000000080002266 <alsaqr_periph_padframe_periphs_pad_gpio_b_13_mux_set>:
    80002266:	890d                	andi	a0,a0,3
    80002268:	1a1047b7          	lui	a5,0x1a104
    8000226c:	d7e8                	sw	a0,108(a5)
    8000226e:	8082                	ret

0000000080002270 <alsaqr_periph_padframe_periphs_pad_gpio_b_13_mux_get>:
    80002270:	1a1047b7          	lui	a5,0x1a104
    80002274:	57e8                	lw	a0,108(a5)
    80002276:	890d                	andi	a0,a0,3
    80002278:	8082                	ret

000000008000227a <alsaqr_periph_padframe_periphs_pad_gpio_b_14_cfg_chip2pad_set>:
    8000227a:	1a104737          	lui	a4,0x1a104
    8000227e:	5b3c                	lw	a5,112(a4)
    80002280:	00a03533          	snez	a0,a0
    80002284:	9bf9                	andi	a5,a5,-2
    80002286:	8fc9                	or	a5,a5,a0
    80002288:	db3c                	sw	a5,112(a4)
    8000228a:	8082                	ret

000000008000228c <alsaqr_periph_padframe_periphs_pad_gpio_b_14_cfg_chip2pad_get>:
    8000228c:	1a1047b7          	lui	a5,0x1a104
    80002290:	5ba8                	lw	a0,112(a5)
    80002292:	8905                	andi	a0,a0,1
    80002294:	8082                	ret

0000000080002296 <alsaqr_periph_padframe_periphs_pad_gpio_b_14_cfg_oen_set>:
    80002296:	1a104737          	lui	a4,0x1a104
    8000229a:	5b3c                	lw	a5,112(a4)
    8000229c:	00a03533          	snez	a0,a0
    800022a0:	0015151b          	slliw	a0,a0,0x1
    800022a4:	9bf5                	andi	a5,a5,-3
    800022a6:	8fc9                	or	a5,a5,a0
    800022a8:	db3c                	sw	a5,112(a4)
    800022aa:	8082                	ret

00000000800022ac <alsaqr_periph_padframe_periphs_pad_gpio_b_14_cfg_oen_get>:
    800022ac:	1a1047b7          	lui	a5,0x1a104
    800022b0:	5ba8                	lw	a0,112(a5)
    800022b2:	0015551b          	srliw	a0,a0,0x1
    800022b6:	8905                	andi	a0,a0,1
    800022b8:	8082                	ret

00000000800022ba <alsaqr_periph_padframe_periphs_pad_gpio_b_14_cfg_puen_set>:
    800022ba:	1a104737          	lui	a4,0x1a104
    800022be:	5b3c                	lw	a5,112(a4)
    800022c0:	00a03533          	snez	a0,a0
    800022c4:	0025151b          	slliw	a0,a0,0x2
    800022c8:	9bed                	andi	a5,a5,-5
    800022ca:	8fc9                	or	a5,a5,a0
    800022cc:	db3c                	sw	a5,112(a4)
    800022ce:	8082                	ret

00000000800022d0 <alsaqr_periph_padframe_periphs_pad_gpio_b_14_cfg_puen_get>:
    800022d0:	1a1047b7          	lui	a5,0x1a104
    800022d4:	5ba8                	lw	a0,112(a5)
    800022d6:	0025551b          	srliw	a0,a0,0x2
    800022da:	8905                	andi	a0,a0,1
    800022dc:	8082                	ret

00000000800022de <alsaqr_periph_padframe_periphs_pad_gpio_b_14_mux_set>:
    800022de:	890d                	andi	a0,a0,3
    800022e0:	1a1047b7          	lui	a5,0x1a104
    800022e4:	dbe8                	sw	a0,116(a5)
    800022e6:	8082                	ret

00000000800022e8 <alsaqr_periph_padframe_periphs_pad_gpio_b_14_mux_get>:
    800022e8:	1a1047b7          	lui	a5,0x1a104
    800022ec:	5be8                	lw	a0,116(a5)
    800022ee:	890d                	andi	a0,a0,3
    800022f0:	8082                	ret

00000000800022f2 <alsaqr_periph_padframe_periphs_pad_gpio_b_15_cfg_chip2pad_set>:
    800022f2:	1a104737          	lui	a4,0x1a104
    800022f6:	5f3c                	lw	a5,120(a4)
    800022f8:	00a03533          	snez	a0,a0
    800022fc:	9bf9                	andi	a5,a5,-2
    800022fe:	8fc9                	or	a5,a5,a0
    80002300:	df3c                	sw	a5,120(a4)
    80002302:	8082                	ret

0000000080002304 <alsaqr_periph_padframe_periphs_pad_gpio_b_15_cfg_chip2pad_get>:
    80002304:	1a1047b7          	lui	a5,0x1a104
    80002308:	5fa8                	lw	a0,120(a5)
    8000230a:	8905                	andi	a0,a0,1
    8000230c:	8082                	ret

000000008000230e <alsaqr_periph_padframe_periphs_pad_gpio_b_15_cfg_oen_set>:
    8000230e:	1a104737          	lui	a4,0x1a104
    80002312:	5f3c                	lw	a5,120(a4)
    80002314:	00a03533          	snez	a0,a0
    80002318:	0015151b          	slliw	a0,a0,0x1
    8000231c:	9bf5                	andi	a5,a5,-3
    8000231e:	8fc9                	or	a5,a5,a0
    80002320:	df3c                	sw	a5,120(a4)
    80002322:	8082                	ret

0000000080002324 <alsaqr_periph_padframe_periphs_pad_gpio_b_15_cfg_oen_get>:
    80002324:	1a1047b7          	lui	a5,0x1a104
    80002328:	5fa8                	lw	a0,120(a5)
    8000232a:	0015551b          	srliw	a0,a0,0x1
    8000232e:	8905                	andi	a0,a0,1
    80002330:	8082                	ret

0000000080002332 <alsaqr_periph_padframe_periphs_pad_gpio_b_15_cfg_puen_set>:
    80002332:	1a104737          	lui	a4,0x1a104
    80002336:	5f3c                	lw	a5,120(a4)
    80002338:	00a03533          	snez	a0,a0
    8000233c:	0025151b          	slliw	a0,a0,0x2
    80002340:	9bed                	andi	a5,a5,-5
    80002342:	8fc9                	or	a5,a5,a0
    80002344:	df3c                	sw	a5,120(a4)
    80002346:	8082                	ret

0000000080002348 <alsaqr_periph_padframe_periphs_pad_gpio_b_15_cfg_puen_get>:
    80002348:	1a1047b7          	lui	a5,0x1a104
    8000234c:	5fa8                	lw	a0,120(a5)
    8000234e:	0025551b          	srliw	a0,a0,0x2
    80002352:	8905                	andi	a0,a0,1
    80002354:	8082                	ret

0000000080002356 <alsaqr_periph_padframe_periphs_pad_gpio_b_15_mux_set>:
    80002356:	890d                	andi	a0,a0,3
    80002358:	1a1047b7          	lui	a5,0x1a104
    8000235c:	dfe8                	sw	a0,124(a5)
    8000235e:	8082                	ret

0000000080002360 <alsaqr_periph_padframe_periphs_pad_gpio_b_15_mux_get>:
    80002360:	1a1047b7          	lui	a5,0x1a104
    80002364:	5fe8                	lw	a0,124(a5)
    80002366:	890d                	andi	a0,a0,3
    80002368:	8082                	ret

000000008000236a <alsaqr_periph_padframe_periphs_pad_gpio_b_16_cfg_chip2pad_set>:
    8000236a:	1a104737          	lui	a4,0x1a104
    8000236e:	08072783          	lw	a5,128(a4) # 1a104080 <_tbss_end+0x1a104080>
    80002372:	00a03533          	snez	a0,a0
    80002376:	9bf9                	andi	a5,a5,-2
    80002378:	8fc9                	or	a5,a5,a0
    8000237a:	08f72023          	sw	a5,128(a4)
    8000237e:	8082                	ret

0000000080002380 <alsaqr_periph_padframe_periphs_pad_gpio_b_16_cfg_chip2pad_get>:
    80002380:	1a1047b7          	lui	a5,0x1a104
    80002384:	0807a503          	lw	a0,128(a5) # 1a104080 <_tbss_end+0x1a104080>
    80002388:	8905                	andi	a0,a0,1
    8000238a:	8082                	ret

000000008000238c <alsaqr_periph_padframe_periphs_pad_gpio_b_16_cfg_oen_set>:
    8000238c:	1a104737          	lui	a4,0x1a104
    80002390:	08072783          	lw	a5,128(a4) # 1a104080 <_tbss_end+0x1a104080>
    80002394:	00a03533          	snez	a0,a0
    80002398:	0015151b          	slliw	a0,a0,0x1
    8000239c:	9bf5                	andi	a5,a5,-3
    8000239e:	8fc9                	or	a5,a5,a0
    800023a0:	08f72023          	sw	a5,128(a4)
    800023a4:	8082                	ret

00000000800023a6 <alsaqr_periph_padframe_periphs_pad_gpio_b_16_cfg_oen_get>:
    800023a6:	1a1047b7          	lui	a5,0x1a104
    800023aa:	0807a503          	lw	a0,128(a5) # 1a104080 <_tbss_end+0x1a104080>
    800023ae:	0015551b          	srliw	a0,a0,0x1
    800023b2:	8905                	andi	a0,a0,1
    800023b4:	8082                	ret

00000000800023b6 <alsaqr_periph_padframe_periphs_pad_gpio_b_16_cfg_puen_set>:
    800023b6:	1a104737          	lui	a4,0x1a104
    800023ba:	08072783          	lw	a5,128(a4) # 1a104080 <_tbss_end+0x1a104080>
    800023be:	00a03533          	snez	a0,a0
    800023c2:	0025151b          	slliw	a0,a0,0x2
    800023c6:	9bed                	andi	a5,a5,-5
    800023c8:	8fc9                	or	a5,a5,a0
    800023ca:	08f72023          	sw	a5,128(a4)
    800023ce:	8082                	ret

00000000800023d0 <alsaqr_periph_padframe_periphs_pad_gpio_b_16_cfg_puen_get>:
    800023d0:	1a1047b7          	lui	a5,0x1a104
    800023d4:	0807a503          	lw	a0,128(a5) # 1a104080 <_tbss_end+0x1a104080>
    800023d8:	0025551b          	srliw	a0,a0,0x2
    800023dc:	8905                	andi	a0,a0,1
    800023de:	8082                	ret

00000000800023e0 <alsaqr_periph_padframe_periphs_pad_gpio_b_16_mux_set>:
    800023e0:	890d                	andi	a0,a0,3
    800023e2:	1a1047b7          	lui	a5,0x1a104
    800023e6:	08a7a223          	sw	a0,132(a5) # 1a104084 <_tbss_end+0x1a104084>
    800023ea:	8082                	ret

00000000800023ec <alsaqr_periph_padframe_periphs_pad_gpio_b_16_mux_get>:
    800023ec:	1a1047b7          	lui	a5,0x1a104
    800023f0:	0847a503          	lw	a0,132(a5) # 1a104084 <_tbss_end+0x1a104084>
    800023f4:	890d                	andi	a0,a0,3
    800023f6:	8082                	ret

00000000800023f8 <alsaqr_periph_padframe_periphs_pad_gpio_b_17_cfg_chip2pad_set>:
    800023f8:	1a104737          	lui	a4,0x1a104
    800023fc:	08872783          	lw	a5,136(a4) # 1a104088 <_tbss_end+0x1a104088>
    80002400:	00a03533          	snez	a0,a0
    80002404:	9bf9                	andi	a5,a5,-2
    80002406:	8fc9                	or	a5,a5,a0
    80002408:	08f72423          	sw	a5,136(a4)
    8000240c:	8082                	ret

000000008000240e <alsaqr_periph_padframe_periphs_pad_gpio_b_17_cfg_chip2pad_get>:
    8000240e:	1a1047b7          	lui	a5,0x1a104
    80002412:	0887a503          	lw	a0,136(a5) # 1a104088 <_tbss_end+0x1a104088>
    80002416:	8905                	andi	a0,a0,1
    80002418:	8082                	ret

000000008000241a <alsaqr_periph_padframe_periphs_pad_gpio_b_17_cfg_oen_set>:
    8000241a:	1a104737          	lui	a4,0x1a104
    8000241e:	08872783          	lw	a5,136(a4) # 1a104088 <_tbss_end+0x1a104088>
    80002422:	00a03533          	snez	a0,a0
    80002426:	0015151b          	slliw	a0,a0,0x1
    8000242a:	9bf5                	andi	a5,a5,-3
    8000242c:	8fc9                	or	a5,a5,a0
    8000242e:	08f72423          	sw	a5,136(a4)
    80002432:	8082                	ret

0000000080002434 <alsaqr_periph_padframe_periphs_pad_gpio_b_17_cfg_oen_get>:
    80002434:	1a1047b7          	lui	a5,0x1a104
    80002438:	0887a503          	lw	a0,136(a5) # 1a104088 <_tbss_end+0x1a104088>
    8000243c:	0015551b          	srliw	a0,a0,0x1
    80002440:	8905                	andi	a0,a0,1
    80002442:	8082                	ret

0000000080002444 <alsaqr_periph_padframe_periphs_pad_gpio_b_17_cfg_puen_set>:
    80002444:	1a104737          	lui	a4,0x1a104
    80002448:	08872783          	lw	a5,136(a4) # 1a104088 <_tbss_end+0x1a104088>
    8000244c:	00a03533          	snez	a0,a0
    80002450:	0025151b          	slliw	a0,a0,0x2
    80002454:	9bed                	andi	a5,a5,-5
    80002456:	8fc9                	or	a5,a5,a0
    80002458:	08f72423          	sw	a5,136(a4)
    8000245c:	8082                	ret

000000008000245e <alsaqr_periph_padframe_periphs_pad_gpio_b_17_cfg_puen_get>:
    8000245e:	1a1047b7          	lui	a5,0x1a104
    80002462:	0887a503          	lw	a0,136(a5) # 1a104088 <_tbss_end+0x1a104088>
    80002466:	0025551b          	srliw	a0,a0,0x2
    8000246a:	8905                	andi	a0,a0,1
    8000246c:	8082                	ret

000000008000246e <alsaqr_periph_padframe_periphs_pad_gpio_b_17_mux_set>:
    8000246e:	890d                	andi	a0,a0,3
    80002470:	1a1047b7          	lui	a5,0x1a104
    80002474:	08a7a623          	sw	a0,140(a5) # 1a10408c <_tbss_end+0x1a10408c>
    80002478:	8082                	ret

000000008000247a <alsaqr_periph_padframe_periphs_pad_gpio_b_17_mux_get>:
    8000247a:	1a1047b7          	lui	a5,0x1a104
    8000247e:	08c7a503          	lw	a0,140(a5) # 1a10408c <_tbss_end+0x1a10408c>
    80002482:	890d                	andi	a0,a0,3
    80002484:	8082                	ret

0000000080002486 <alsaqr_periph_padframe_periphs_pad_gpio_b_18_cfg_chip2pad_set>:
    80002486:	1a104737          	lui	a4,0x1a104
    8000248a:	09072783          	lw	a5,144(a4) # 1a104090 <_tbss_end+0x1a104090>
    8000248e:	00a03533          	snez	a0,a0
    80002492:	9bf9                	andi	a5,a5,-2
    80002494:	8fc9                	or	a5,a5,a0
    80002496:	08f72823          	sw	a5,144(a4)
    8000249a:	8082                	ret

000000008000249c <alsaqr_periph_padframe_periphs_pad_gpio_b_18_cfg_chip2pad_get>:
    8000249c:	1a1047b7          	lui	a5,0x1a104
    800024a0:	0907a503          	lw	a0,144(a5) # 1a104090 <_tbss_end+0x1a104090>
    800024a4:	8905                	andi	a0,a0,1
    800024a6:	8082                	ret

00000000800024a8 <alsaqr_periph_padframe_periphs_pad_gpio_b_18_cfg_oen_set>:
    800024a8:	1a104737          	lui	a4,0x1a104
    800024ac:	09072783          	lw	a5,144(a4) # 1a104090 <_tbss_end+0x1a104090>
    800024b0:	00a03533          	snez	a0,a0
    800024b4:	0015151b          	slliw	a0,a0,0x1
    800024b8:	9bf5                	andi	a5,a5,-3
    800024ba:	8fc9                	or	a5,a5,a0
    800024bc:	08f72823          	sw	a5,144(a4)
    800024c0:	8082                	ret

00000000800024c2 <alsaqr_periph_padframe_periphs_pad_gpio_b_18_cfg_oen_get>:
    800024c2:	1a1047b7          	lui	a5,0x1a104
    800024c6:	0907a503          	lw	a0,144(a5) # 1a104090 <_tbss_end+0x1a104090>
    800024ca:	0015551b          	srliw	a0,a0,0x1
    800024ce:	8905                	andi	a0,a0,1
    800024d0:	8082                	ret

00000000800024d2 <alsaqr_periph_padframe_periphs_pad_gpio_b_18_cfg_puen_set>:
    800024d2:	1a104737          	lui	a4,0x1a104
    800024d6:	09072783          	lw	a5,144(a4) # 1a104090 <_tbss_end+0x1a104090>
    800024da:	00a03533          	snez	a0,a0
    800024de:	0025151b          	slliw	a0,a0,0x2
    800024e2:	9bed                	andi	a5,a5,-5
    800024e4:	8fc9                	or	a5,a5,a0
    800024e6:	08f72823          	sw	a5,144(a4)
    800024ea:	8082                	ret

00000000800024ec <alsaqr_periph_padframe_periphs_pad_gpio_b_18_cfg_puen_get>:
    800024ec:	1a1047b7          	lui	a5,0x1a104
    800024f0:	0907a503          	lw	a0,144(a5) # 1a104090 <_tbss_end+0x1a104090>
    800024f4:	0025551b          	srliw	a0,a0,0x2
    800024f8:	8905                	andi	a0,a0,1
    800024fa:	8082                	ret

00000000800024fc <alsaqr_periph_padframe_periphs_pad_gpio_b_18_mux_set>:
    800024fc:	890d                	andi	a0,a0,3
    800024fe:	1a1047b7          	lui	a5,0x1a104
    80002502:	08a7aa23          	sw	a0,148(a5) # 1a104094 <_tbss_end+0x1a104094>
    80002506:	8082                	ret

0000000080002508 <alsaqr_periph_padframe_periphs_pad_gpio_b_18_mux_get>:
    80002508:	1a1047b7          	lui	a5,0x1a104
    8000250c:	0947a503          	lw	a0,148(a5) # 1a104094 <_tbss_end+0x1a104094>
    80002510:	890d                	andi	a0,a0,3
    80002512:	8082                	ret

0000000080002514 <alsaqr_periph_padframe_periphs_pad_gpio_b_19_cfg_chip2pad_set>:
    80002514:	1a104737          	lui	a4,0x1a104
    80002518:	09872783          	lw	a5,152(a4) # 1a104098 <_tbss_end+0x1a104098>
    8000251c:	00a03533          	snez	a0,a0
    80002520:	9bf9                	andi	a5,a5,-2
    80002522:	8fc9                	or	a5,a5,a0
    80002524:	08f72c23          	sw	a5,152(a4)
    80002528:	8082                	ret

000000008000252a <alsaqr_periph_padframe_periphs_pad_gpio_b_19_cfg_chip2pad_get>:
    8000252a:	1a1047b7          	lui	a5,0x1a104
    8000252e:	0987a503          	lw	a0,152(a5) # 1a104098 <_tbss_end+0x1a104098>
    80002532:	8905                	andi	a0,a0,1
    80002534:	8082                	ret

0000000080002536 <alsaqr_periph_padframe_periphs_pad_gpio_b_19_cfg_oen_set>:
    80002536:	1a104737          	lui	a4,0x1a104
    8000253a:	09872783          	lw	a5,152(a4) # 1a104098 <_tbss_end+0x1a104098>
    8000253e:	00a03533          	snez	a0,a0
    80002542:	0015151b          	slliw	a0,a0,0x1
    80002546:	9bf5                	andi	a5,a5,-3
    80002548:	8fc9                	or	a5,a5,a0
    8000254a:	08f72c23          	sw	a5,152(a4)
    8000254e:	8082                	ret

0000000080002550 <alsaqr_periph_padframe_periphs_pad_gpio_b_19_cfg_oen_get>:
    80002550:	1a1047b7          	lui	a5,0x1a104
    80002554:	0987a503          	lw	a0,152(a5) # 1a104098 <_tbss_end+0x1a104098>
    80002558:	0015551b          	srliw	a0,a0,0x1
    8000255c:	8905                	andi	a0,a0,1
    8000255e:	8082                	ret

0000000080002560 <alsaqr_periph_padframe_periphs_pad_gpio_b_19_cfg_puen_set>:
    80002560:	1a104737          	lui	a4,0x1a104
    80002564:	09872783          	lw	a5,152(a4) # 1a104098 <_tbss_end+0x1a104098>
    80002568:	00a03533          	snez	a0,a0
    8000256c:	0025151b          	slliw	a0,a0,0x2
    80002570:	9bed                	andi	a5,a5,-5
    80002572:	8fc9                	or	a5,a5,a0
    80002574:	08f72c23          	sw	a5,152(a4)
    80002578:	8082                	ret

000000008000257a <alsaqr_periph_padframe_periphs_pad_gpio_b_19_cfg_puen_get>:
    8000257a:	1a1047b7          	lui	a5,0x1a104
    8000257e:	0987a503          	lw	a0,152(a5) # 1a104098 <_tbss_end+0x1a104098>
    80002582:	0025551b          	srliw	a0,a0,0x2
    80002586:	8905                	andi	a0,a0,1
    80002588:	8082                	ret

000000008000258a <alsaqr_periph_padframe_periphs_pad_gpio_b_19_mux_set>:
    8000258a:	890d                	andi	a0,a0,3
    8000258c:	1a1047b7          	lui	a5,0x1a104
    80002590:	08a7ae23          	sw	a0,156(a5) # 1a10409c <_tbss_end+0x1a10409c>
    80002594:	8082                	ret

0000000080002596 <alsaqr_periph_padframe_periphs_pad_gpio_b_19_mux_get>:
    80002596:	1a1047b7          	lui	a5,0x1a104
    8000259a:	09c7a503          	lw	a0,156(a5) # 1a10409c <_tbss_end+0x1a10409c>
    8000259e:	890d                	andi	a0,a0,3
    800025a0:	8082                	ret

00000000800025a2 <alsaqr_periph_padframe_periphs_pad_gpio_b_20_cfg_chip2pad_set>:
    800025a2:	1a104737          	lui	a4,0x1a104
    800025a6:	0a072783          	lw	a5,160(a4) # 1a1040a0 <_tbss_end+0x1a1040a0>
    800025aa:	00a03533          	snez	a0,a0
    800025ae:	9bf9                	andi	a5,a5,-2
    800025b0:	8fc9                	or	a5,a5,a0
    800025b2:	0af72023          	sw	a5,160(a4)
    800025b6:	8082                	ret

00000000800025b8 <alsaqr_periph_padframe_periphs_pad_gpio_b_20_cfg_chip2pad_get>:
    800025b8:	1a1047b7          	lui	a5,0x1a104
    800025bc:	0a07a503          	lw	a0,160(a5) # 1a1040a0 <_tbss_end+0x1a1040a0>
    800025c0:	8905                	andi	a0,a0,1
    800025c2:	8082                	ret

00000000800025c4 <alsaqr_periph_padframe_periphs_pad_gpio_b_20_cfg_oen_set>:
    800025c4:	1a104737          	lui	a4,0x1a104
    800025c8:	0a072783          	lw	a5,160(a4) # 1a1040a0 <_tbss_end+0x1a1040a0>
    800025cc:	00a03533          	snez	a0,a0
    800025d0:	0015151b          	slliw	a0,a0,0x1
    800025d4:	9bf5                	andi	a5,a5,-3
    800025d6:	8fc9                	or	a5,a5,a0
    800025d8:	0af72023          	sw	a5,160(a4)
    800025dc:	8082                	ret

00000000800025de <alsaqr_periph_padframe_periphs_pad_gpio_b_20_cfg_oen_get>:
    800025de:	1a1047b7          	lui	a5,0x1a104
    800025e2:	0a07a503          	lw	a0,160(a5) # 1a1040a0 <_tbss_end+0x1a1040a0>
    800025e6:	0015551b          	srliw	a0,a0,0x1
    800025ea:	8905                	andi	a0,a0,1
    800025ec:	8082                	ret

00000000800025ee <alsaqr_periph_padframe_periphs_pad_gpio_b_20_cfg_puen_set>:
    800025ee:	1a104737          	lui	a4,0x1a104
    800025f2:	0a072783          	lw	a5,160(a4) # 1a1040a0 <_tbss_end+0x1a1040a0>
    800025f6:	00a03533          	snez	a0,a0
    800025fa:	0025151b          	slliw	a0,a0,0x2
    800025fe:	9bed                	andi	a5,a5,-5
    80002600:	8fc9                	or	a5,a5,a0
    80002602:	0af72023          	sw	a5,160(a4)
    80002606:	8082                	ret

0000000080002608 <alsaqr_periph_padframe_periphs_pad_gpio_b_20_cfg_puen_get>:
    80002608:	1a1047b7          	lui	a5,0x1a104
    8000260c:	0a07a503          	lw	a0,160(a5) # 1a1040a0 <_tbss_end+0x1a1040a0>
    80002610:	0025551b          	srliw	a0,a0,0x2
    80002614:	8905                	andi	a0,a0,1
    80002616:	8082                	ret

0000000080002618 <alsaqr_periph_padframe_periphs_pad_gpio_b_20_mux_set>:
    80002618:	890d                	andi	a0,a0,3
    8000261a:	1a1047b7          	lui	a5,0x1a104
    8000261e:	0aa7a223          	sw	a0,164(a5) # 1a1040a4 <_tbss_end+0x1a1040a4>
    80002622:	8082                	ret

0000000080002624 <alsaqr_periph_padframe_periphs_pad_gpio_b_20_mux_get>:
    80002624:	1a1047b7          	lui	a5,0x1a104
    80002628:	0a47a503          	lw	a0,164(a5) # 1a1040a4 <_tbss_end+0x1a1040a4>
    8000262c:	890d                	andi	a0,a0,3
    8000262e:	8082                	ret

0000000080002630 <alsaqr_periph_padframe_periphs_pad_gpio_b_21_cfg_chip2pad_set>:
    80002630:	1a104737          	lui	a4,0x1a104
    80002634:	0a872783          	lw	a5,168(a4) # 1a1040a8 <_tbss_end+0x1a1040a8>
    80002638:	00a03533          	snez	a0,a0
    8000263c:	9bf9                	andi	a5,a5,-2
    8000263e:	8fc9                	or	a5,a5,a0
    80002640:	0af72423          	sw	a5,168(a4)
    80002644:	8082                	ret

0000000080002646 <alsaqr_periph_padframe_periphs_pad_gpio_b_21_cfg_chip2pad_get>:
    80002646:	1a1047b7          	lui	a5,0x1a104
    8000264a:	0a87a503          	lw	a0,168(a5) # 1a1040a8 <_tbss_end+0x1a1040a8>
    8000264e:	8905                	andi	a0,a0,1
    80002650:	8082                	ret

0000000080002652 <alsaqr_periph_padframe_periphs_pad_gpio_b_21_cfg_oen_set>:
    80002652:	1a104737          	lui	a4,0x1a104
    80002656:	0a872783          	lw	a5,168(a4) # 1a1040a8 <_tbss_end+0x1a1040a8>
    8000265a:	00a03533          	snez	a0,a0
    8000265e:	0015151b          	slliw	a0,a0,0x1
    80002662:	9bf5                	andi	a5,a5,-3
    80002664:	8fc9                	or	a5,a5,a0
    80002666:	0af72423          	sw	a5,168(a4)
    8000266a:	8082                	ret

000000008000266c <alsaqr_periph_padframe_periphs_pad_gpio_b_21_cfg_oen_get>:
    8000266c:	1a1047b7          	lui	a5,0x1a104
    80002670:	0a87a503          	lw	a0,168(a5) # 1a1040a8 <_tbss_end+0x1a1040a8>
    80002674:	0015551b          	srliw	a0,a0,0x1
    80002678:	8905                	andi	a0,a0,1
    8000267a:	8082                	ret

000000008000267c <alsaqr_periph_padframe_periphs_pad_gpio_b_21_cfg_puen_set>:
    8000267c:	1a104737          	lui	a4,0x1a104
    80002680:	0a872783          	lw	a5,168(a4) # 1a1040a8 <_tbss_end+0x1a1040a8>
    80002684:	00a03533          	snez	a0,a0
    80002688:	0025151b          	slliw	a0,a0,0x2
    8000268c:	9bed                	andi	a5,a5,-5
    8000268e:	8fc9                	or	a5,a5,a0
    80002690:	0af72423          	sw	a5,168(a4)
    80002694:	8082                	ret

0000000080002696 <alsaqr_periph_padframe_periphs_pad_gpio_b_21_cfg_puen_get>:
    80002696:	1a1047b7          	lui	a5,0x1a104
    8000269a:	0a87a503          	lw	a0,168(a5) # 1a1040a8 <_tbss_end+0x1a1040a8>
    8000269e:	0025551b          	srliw	a0,a0,0x2
    800026a2:	8905                	andi	a0,a0,1
    800026a4:	8082                	ret

00000000800026a6 <alsaqr_periph_padframe_periphs_pad_gpio_b_21_mux_set>:
    800026a6:	890d                	andi	a0,a0,3
    800026a8:	1a1047b7          	lui	a5,0x1a104
    800026ac:	0aa7a623          	sw	a0,172(a5) # 1a1040ac <_tbss_end+0x1a1040ac>
    800026b0:	8082                	ret

00000000800026b2 <alsaqr_periph_padframe_periphs_pad_gpio_b_21_mux_get>:
    800026b2:	1a1047b7          	lui	a5,0x1a104
    800026b6:	0ac7a503          	lw	a0,172(a5) # 1a1040ac <_tbss_end+0x1a1040ac>
    800026ba:	890d                	andi	a0,a0,3
    800026bc:	8082                	ret

00000000800026be <alsaqr_periph_padframe_periphs_pad_gpio_b_22_cfg_chip2pad_set>:
    800026be:	1a104737          	lui	a4,0x1a104
    800026c2:	0b072783          	lw	a5,176(a4) # 1a1040b0 <_tbss_end+0x1a1040b0>
    800026c6:	00a03533          	snez	a0,a0
    800026ca:	9bf9                	andi	a5,a5,-2
    800026cc:	8fc9                	or	a5,a5,a0
    800026ce:	0af72823          	sw	a5,176(a4)
    800026d2:	8082                	ret

00000000800026d4 <alsaqr_periph_padframe_periphs_pad_gpio_b_22_cfg_chip2pad_get>:
    800026d4:	1a1047b7          	lui	a5,0x1a104
    800026d8:	0b07a503          	lw	a0,176(a5) # 1a1040b0 <_tbss_end+0x1a1040b0>
    800026dc:	8905                	andi	a0,a0,1
    800026de:	8082                	ret

00000000800026e0 <alsaqr_periph_padframe_periphs_pad_gpio_b_22_cfg_oen_set>:
    800026e0:	1a104737          	lui	a4,0x1a104
    800026e4:	0b072783          	lw	a5,176(a4) # 1a1040b0 <_tbss_end+0x1a1040b0>
    800026e8:	00a03533          	snez	a0,a0
    800026ec:	0015151b          	slliw	a0,a0,0x1
    800026f0:	9bf5                	andi	a5,a5,-3
    800026f2:	8fc9                	or	a5,a5,a0
    800026f4:	0af72823          	sw	a5,176(a4)
    800026f8:	8082                	ret

00000000800026fa <alsaqr_periph_padframe_periphs_pad_gpio_b_22_cfg_oen_get>:
    800026fa:	1a1047b7          	lui	a5,0x1a104
    800026fe:	0b07a503          	lw	a0,176(a5) # 1a1040b0 <_tbss_end+0x1a1040b0>
    80002702:	0015551b          	srliw	a0,a0,0x1
    80002706:	8905                	andi	a0,a0,1
    80002708:	8082                	ret

000000008000270a <alsaqr_periph_padframe_periphs_pad_gpio_b_22_cfg_puen_set>:
    8000270a:	1a104737          	lui	a4,0x1a104
    8000270e:	0b072783          	lw	a5,176(a4) # 1a1040b0 <_tbss_end+0x1a1040b0>
    80002712:	00a03533          	snez	a0,a0
    80002716:	0025151b          	slliw	a0,a0,0x2
    8000271a:	9bed                	andi	a5,a5,-5
    8000271c:	8fc9                	or	a5,a5,a0
    8000271e:	0af72823          	sw	a5,176(a4)
    80002722:	8082                	ret

0000000080002724 <alsaqr_periph_padframe_periphs_pad_gpio_b_22_cfg_puen_get>:
    80002724:	1a1047b7          	lui	a5,0x1a104
    80002728:	0b07a503          	lw	a0,176(a5) # 1a1040b0 <_tbss_end+0x1a1040b0>
    8000272c:	0025551b          	srliw	a0,a0,0x2
    80002730:	8905                	andi	a0,a0,1
    80002732:	8082                	ret

0000000080002734 <alsaqr_periph_padframe_periphs_pad_gpio_b_22_mux_set>:
    80002734:	890d                	andi	a0,a0,3
    80002736:	1a1047b7          	lui	a5,0x1a104
    8000273a:	0aa7aa23          	sw	a0,180(a5) # 1a1040b4 <_tbss_end+0x1a1040b4>
    8000273e:	8082                	ret

0000000080002740 <alsaqr_periph_padframe_periphs_pad_gpio_b_22_mux_get>:
    80002740:	1a1047b7          	lui	a5,0x1a104
    80002744:	0b47a503          	lw	a0,180(a5) # 1a1040b4 <_tbss_end+0x1a1040b4>
    80002748:	890d                	andi	a0,a0,3
    8000274a:	8082                	ret

000000008000274c <alsaqr_periph_padframe_periphs_pad_gpio_b_23_cfg_chip2pad_set>:
    8000274c:	1a104737          	lui	a4,0x1a104
    80002750:	0b872783          	lw	a5,184(a4) # 1a1040b8 <_tbss_end+0x1a1040b8>
    80002754:	00a03533          	snez	a0,a0
    80002758:	9bf9                	andi	a5,a5,-2
    8000275a:	8fc9                	or	a5,a5,a0
    8000275c:	0af72c23          	sw	a5,184(a4)
    80002760:	8082                	ret

0000000080002762 <alsaqr_periph_padframe_periphs_pad_gpio_b_23_cfg_chip2pad_get>:
    80002762:	1a1047b7          	lui	a5,0x1a104
    80002766:	0b87a503          	lw	a0,184(a5) # 1a1040b8 <_tbss_end+0x1a1040b8>
    8000276a:	8905                	andi	a0,a0,1
    8000276c:	8082                	ret

000000008000276e <alsaqr_periph_padframe_periphs_pad_gpio_b_23_cfg_oen_set>:
    8000276e:	1a104737          	lui	a4,0x1a104
    80002772:	0b872783          	lw	a5,184(a4) # 1a1040b8 <_tbss_end+0x1a1040b8>
    80002776:	00a03533          	snez	a0,a0
    8000277a:	0015151b          	slliw	a0,a0,0x1
    8000277e:	9bf5                	andi	a5,a5,-3
    80002780:	8fc9                	or	a5,a5,a0
    80002782:	0af72c23          	sw	a5,184(a4)
    80002786:	8082                	ret

0000000080002788 <alsaqr_periph_padframe_periphs_pad_gpio_b_23_cfg_oen_get>:
    80002788:	1a1047b7          	lui	a5,0x1a104
    8000278c:	0b87a503          	lw	a0,184(a5) # 1a1040b8 <_tbss_end+0x1a1040b8>
    80002790:	0015551b          	srliw	a0,a0,0x1
    80002794:	8905                	andi	a0,a0,1
    80002796:	8082                	ret

0000000080002798 <alsaqr_periph_padframe_periphs_pad_gpio_b_23_cfg_puen_set>:
    80002798:	1a104737          	lui	a4,0x1a104
    8000279c:	0b872783          	lw	a5,184(a4) # 1a1040b8 <_tbss_end+0x1a1040b8>
    800027a0:	00a03533          	snez	a0,a0
    800027a4:	0025151b          	slliw	a0,a0,0x2
    800027a8:	9bed                	andi	a5,a5,-5
    800027aa:	8fc9                	or	a5,a5,a0
    800027ac:	0af72c23          	sw	a5,184(a4)
    800027b0:	8082                	ret

00000000800027b2 <alsaqr_periph_padframe_periphs_pad_gpio_b_23_cfg_puen_get>:
    800027b2:	1a1047b7          	lui	a5,0x1a104
    800027b6:	0b87a503          	lw	a0,184(a5) # 1a1040b8 <_tbss_end+0x1a1040b8>
    800027ba:	0025551b          	srliw	a0,a0,0x2
    800027be:	8905                	andi	a0,a0,1
    800027c0:	8082                	ret

00000000800027c2 <alsaqr_periph_padframe_periphs_pad_gpio_b_23_mux_set>:
    800027c2:	890d                	andi	a0,a0,3
    800027c4:	1a1047b7          	lui	a5,0x1a104
    800027c8:	0aa7ae23          	sw	a0,188(a5) # 1a1040bc <_tbss_end+0x1a1040bc>
    800027cc:	8082                	ret

00000000800027ce <alsaqr_periph_padframe_periphs_pad_gpio_b_23_mux_get>:
    800027ce:	1a1047b7          	lui	a5,0x1a104
    800027d2:	0bc7a503          	lw	a0,188(a5) # 1a1040bc <_tbss_end+0x1a1040bc>
    800027d6:	890d                	andi	a0,a0,3
    800027d8:	8082                	ret

00000000800027da <alsaqr_periph_padframe_periphs_pad_gpio_b_24_cfg_chip2pad_set>:
    800027da:	1a104737          	lui	a4,0x1a104
    800027de:	0c072783          	lw	a5,192(a4) # 1a1040c0 <_tbss_end+0x1a1040c0>
    800027e2:	00a03533          	snez	a0,a0
    800027e6:	9bf9                	andi	a5,a5,-2
    800027e8:	8fc9                	or	a5,a5,a0
    800027ea:	0cf72023          	sw	a5,192(a4)
    800027ee:	8082                	ret

00000000800027f0 <alsaqr_periph_padframe_periphs_pad_gpio_b_24_cfg_chip2pad_get>:
    800027f0:	1a1047b7          	lui	a5,0x1a104
    800027f4:	0c07a503          	lw	a0,192(a5) # 1a1040c0 <_tbss_end+0x1a1040c0>
    800027f8:	8905                	andi	a0,a0,1
    800027fa:	8082                	ret

00000000800027fc <alsaqr_periph_padframe_periphs_pad_gpio_b_24_cfg_oen_set>:
    800027fc:	1a104737          	lui	a4,0x1a104
    80002800:	0c072783          	lw	a5,192(a4) # 1a1040c0 <_tbss_end+0x1a1040c0>
    80002804:	00a03533          	snez	a0,a0
    80002808:	0015151b          	slliw	a0,a0,0x1
    8000280c:	9bf5                	andi	a5,a5,-3
    8000280e:	8fc9                	or	a5,a5,a0
    80002810:	0cf72023          	sw	a5,192(a4)
    80002814:	8082                	ret

0000000080002816 <alsaqr_periph_padframe_periphs_pad_gpio_b_24_cfg_oen_get>:
    80002816:	1a1047b7          	lui	a5,0x1a104
    8000281a:	0c07a503          	lw	a0,192(a5) # 1a1040c0 <_tbss_end+0x1a1040c0>
    8000281e:	0015551b          	srliw	a0,a0,0x1
    80002822:	8905                	andi	a0,a0,1
    80002824:	8082                	ret

0000000080002826 <alsaqr_periph_padframe_periphs_pad_gpio_b_24_cfg_puen_set>:
    80002826:	1a104737          	lui	a4,0x1a104
    8000282a:	0c072783          	lw	a5,192(a4) # 1a1040c0 <_tbss_end+0x1a1040c0>
    8000282e:	00a03533          	snez	a0,a0
    80002832:	0025151b          	slliw	a0,a0,0x2
    80002836:	9bed                	andi	a5,a5,-5
    80002838:	8fc9                	or	a5,a5,a0
    8000283a:	0cf72023          	sw	a5,192(a4)
    8000283e:	8082                	ret

0000000080002840 <alsaqr_periph_padframe_periphs_pad_gpio_b_24_cfg_puen_get>:
    80002840:	1a1047b7          	lui	a5,0x1a104
    80002844:	0c07a503          	lw	a0,192(a5) # 1a1040c0 <_tbss_end+0x1a1040c0>
    80002848:	0025551b          	srliw	a0,a0,0x2
    8000284c:	8905                	andi	a0,a0,1
    8000284e:	8082                	ret

0000000080002850 <alsaqr_periph_padframe_periphs_pad_gpio_b_24_mux_set>:
    80002850:	890d                	andi	a0,a0,3
    80002852:	1a1047b7          	lui	a5,0x1a104
    80002856:	0ca7a223          	sw	a0,196(a5) # 1a1040c4 <_tbss_end+0x1a1040c4>
    8000285a:	8082                	ret

000000008000285c <alsaqr_periph_padframe_periphs_pad_gpio_b_24_mux_get>:
    8000285c:	1a1047b7          	lui	a5,0x1a104
    80002860:	0c47a503          	lw	a0,196(a5) # 1a1040c4 <_tbss_end+0x1a1040c4>
    80002864:	890d                	andi	a0,a0,3
    80002866:	8082                	ret

0000000080002868 <alsaqr_periph_padframe_periphs_pad_gpio_b_25_cfg_chip2pad_set>:
    80002868:	1a104737          	lui	a4,0x1a104
    8000286c:	0c872783          	lw	a5,200(a4) # 1a1040c8 <_tbss_end+0x1a1040c8>
    80002870:	00a03533          	snez	a0,a0
    80002874:	9bf9                	andi	a5,a5,-2
    80002876:	8fc9                	or	a5,a5,a0
    80002878:	0cf72423          	sw	a5,200(a4)
    8000287c:	8082                	ret

000000008000287e <alsaqr_periph_padframe_periphs_pad_gpio_b_25_cfg_chip2pad_get>:
    8000287e:	1a1047b7          	lui	a5,0x1a104
    80002882:	0c87a503          	lw	a0,200(a5) # 1a1040c8 <_tbss_end+0x1a1040c8>
    80002886:	8905                	andi	a0,a0,1
    80002888:	8082                	ret

000000008000288a <alsaqr_periph_padframe_periphs_pad_gpio_b_25_cfg_oen_set>:
    8000288a:	1a104737          	lui	a4,0x1a104
    8000288e:	0c872783          	lw	a5,200(a4) # 1a1040c8 <_tbss_end+0x1a1040c8>
    80002892:	00a03533          	snez	a0,a0
    80002896:	0015151b          	slliw	a0,a0,0x1
    8000289a:	9bf5                	andi	a5,a5,-3
    8000289c:	8fc9                	or	a5,a5,a0
    8000289e:	0cf72423          	sw	a5,200(a4)
    800028a2:	8082                	ret

00000000800028a4 <alsaqr_periph_padframe_periphs_pad_gpio_b_25_cfg_oen_get>:
    800028a4:	1a1047b7          	lui	a5,0x1a104
    800028a8:	0c87a503          	lw	a0,200(a5) # 1a1040c8 <_tbss_end+0x1a1040c8>
    800028ac:	0015551b          	srliw	a0,a0,0x1
    800028b0:	8905                	andi	a0,a0,1
    800028b2:	8082                	ret

00000000800028b4 <alsaqr_periph_padframe_periphs_pad_gpio_b_25_cfg_puen_set>:
    800028b4:	1a104737          	lui	a4,0x1a104
    800028b8:	0c872783          	lw	a5,200(a4) # 1a1040c8 <_tbss_end+0x1a1040c8>
    800028bc:	00a03533          	snez	a0,a0
    800028c0:	0025151b          	slliw	a0,a0,0x2
    800028c4:	9bed                	andi	a5,a5,-5
    800028c6:	8fc9                	or	a5,a5,a0
    800028c8:	0cf72423          	sw	a5,200(a4)
    800028cc:	8082                	ret

00000000800028ce <alsaqr_periph_padframe_periphs_pad_gpio_b_25_cfg_puen_get>:
    800028ce:	1a1047b7          	lui	a5,0x1a104
    800028d2:	0c87a503          	lw	a0,200(a5) # 1a1040c8 <_tbss_end+0x1a1040c8>
    800028d6:	0025551b          	srliw	a0,a0,0x2
    800028da:	8905                	andi	a0,a0,1
    800028dc:	8082                	ret

00000000800028de <alsaqr_periph_padframe_periphs_pad_gpio_b_25_mux_set>:
    800028de:	890d                	andi	a0,a0,3
    800028e0:	1a1047b7          	lui	a5,0x1a104
    800028e4:	0ca7a623          	sw	a0,204(a5) # 1a1040cc <_tbss_end+0x1a1040cc>
    800028e8:	8082                	ret

00000000800028ea <alsaqr_periph_padframe_periphs_pad_gpio_b_25_mux_get>:
    800028ea:	1a1047b7          	lui	a5,0x1a104
    800028ee:	0cc7a503          	lw	a0,204(a5) # 1a1040cc <_tbss_end+0x1a1040cc>
    800028f2:	890d                	andi	a0,a0,3
    800028f4:	8082                	ret

00000000800028f6 <alsaqr_periph_padframe_periphs_pad_gpio_b_26_cfg_chip2pad_set>:
    800028f6:	1a104737          	lui	a4,0x1a104
    800028fa:	0d072783          	lw	a5,208(a4) # 1a1040d0 <_tbss_end+0x1a1040d0>
    800028fe:	00a03533          	snez	a0,a0
    80002902:	9bf9                	andi	a5,a5,-2
    80002904:	8fc9                	or	a5,a5,a0
    80002906:	0cf72823          	sw	a5,208(a4)
    8000290a:	8082                	ret

000000008000290c <alsaqr_periph_padframe_periphs_pad_gpio_b_26_cfg_chip2pad_get>:
    8000290c:	1a1047b7          	lui	a5,0x1a104
    80002910:	0d07a503          	lw	a0,208(a5) # 1a1040d0 <_tbss_end+0x1a1040d0>
    80002914:	8905                	andi	a0,a0,1
    80002916:	8082                	ret

0000000080002918 <alsaqr_periph_padframe_periphs_pad_gpio_b_26_cfg_oen_set>:
    80002918:	1a104737          	lui	a4,0x1a104
    8000291c:	0d072783          	lw	a5,208(a4) # 1a1040d0 <_tbss_end+0x1a1040d0>
    80002920:	00a03533          	snez	a0,a0
    80002924:	0015151b          	slliw	a0,a0,0x1
    80002928:	9bf5                	andi	a5,a5,-3
    8000292a:	8fc9                	or	a5,a5,a0
    8000292c:	0cf72823          	sw	a5,208(a4)
    80002930:	8082                	ret

0000000080002932 <alsaqr_periph_padframe_periphs_pad_gpio_b_26_cfg_oen_get>:
    80002932:	1a1047b7          	lui	a5,0x1a104
    80002936:	0d07a503          	lw	a0,208(a5) # 1a1040d0 <_tbss_end+0x1a1040d0>
    8000293a:	0015551b          	srliw	a0,a0,0x1
    8000293e:	8905                	andi	a0,a0,1
    80002940:	8082                	ret

0000000080002942 <alsaqr_periph_padframe_periphs_pad_gpio_b_26_cfg_puen_set>:
    80002942:	1a104737          	lui	a4,0x1a104
    80002946:	0d072783          	lw	a5,208(a4) # 1a1040d0 <_tbss_end+0x1a1040d0>
    8000294a:	00a03533          	snez	a0,a0
    8000294e:	0025151b          	slliw	a0,a0,0x2
    80002952:	9bed                	andi	a5,a5,-5
    80002954:	8fc9                	or	a5,a5,a0
    80002956:	0cf72823          	sw	a5,208(a4)
    8000295a:	8082                	ret

000000008000295c <alsaqr_periph_padframe_periphs_pad_gpio_b_26_cfg_puen_get>:
    8000295c:	1a1047b7          	lui	a5,0x1a104
    80002960:	0d07a503          	lw	a0,208(a5) # 1a1040d0 <_tbss_end+0x1a1040d0>
    80002964:	0025551b          	srliw	a0,a0,0x2
    80002968:	8905                	andi	a0,a0,1
    8000296a:	8082                	ret

000000008000296c <alsaqr_periph_padframe_periphs_pad_gpio_b_26_mux_set>:
    8000296c:	890d                	andi	a0,a0,3
    8000296e:	1a1047b7          	lui	a5,0x1a104
    80002972:	0ca7aa23          	sw	a0,212(a5) # 1a1040d4 <_tbss_end+0x1a1040d4>
    80002976:	8082                	ret

0000000080002978 <alsaqr_periph_padframe_periphs_pad_gpio_b_26_mux_get>:
    80002978:	1a1047b7          	lui	a5,0x1a104
    8000297c:	0d47a503          	lw	a0,212(a5) # 1a1040d4 <_tbss_end+0x1a1040d4>
    80002980:	890d                	andi	a0,a0,3
    80002982:	8082                	ret

0000000080002984 <alsaqr_periph_padframe_periphs_pad_gpio_b_27_cfg_chip2pad_set>:
    80002984:	1a104737          	lui	a4,0x1a104
    80002988:	0d872783          	lw	a5,216(a4) # 1a1040d8 <_tbss_end+0x1a1040d8>
    8000298c:	00a03533          	snez	a0,a0
    80002990:	9bf9                	andi	a5,a5,-2
    80002992:	8fc9                	or	a5,a5,a0
    80002994:	0cf72c23          	sw	a5,216(a4)
    80002998:	8082                	ret

000000008000299a <alsaqr_periph_padframe_periphs_pad_gpio_b_27_cfg_chip2pad_get>:
    8000299a:	1a1047b7          	lui	a5,0x1a104
    8000299e:	0d87a503          	lw	a0,216(a5) # 1a1040d8 <_tbss_end+0x1a1040d8>
    800029a2:	8905                	andi	a0,a0,1
    800029a4:	8082                	ret

00000000800029a6 <alsaqr_periph_padframe_periphs_pad_gpio_b_27_cfg_oen_set>:
    800029a6:	1a104737          	lui	a4,0x1a104
    800029aa:	0d872783          	lw	a5,216(a4) # 1a1040d8 <_tbss_end+0x1a1040d8>
    800029ae:	00a03533          	snez	a0,a0
    800029b2:	0015151b          	slliw	a0,a0,0x1
    800029b6:	9bf5                	andi	a5,a5,-3
    800029b8:	8fc9                	or	a5,a5,a0
    800029ba:	0cf72c23          	sw	a5,216(a4)
    800029be:	8082                	ret

00000000800029c0 <alsaqr_periph_padframe_periphs_pad_gpio_b_27_cfg_oen_get>:
    800029c0:	1a1047b7          	lui	a5,0x1a104
    800029c4:	0d87a503          	lw	a0,216(a5) # 1a1040d8 <_tbss_end+0x1a1040d8>
    800029c8:	0015551b          	srliw	a0,a0,0x1
    800029cc:	8905                	andi	a0,a0,1
    800029ce:	8082                	ret

00000000800029d0 <alsaqr_periph_padframe_periphs_pad_gpio_b_27_cfg_puen_set>:
    800029d0:	1a104737          	lui	a4,0x1a104
    800029d4:	0d872783          	lw	a5,216(a4) # 1a1040d8 <_tbss_end+0x1a1040d8>
    800029d8:	00a03533          	snez	a0,a0
    800029dc:	0025151b          	slliw	a0,a0,0x2
    800029e0:	9bed                	andi	a5,a5,-5
    800029e2:	8fc9                	or	a5,a5,a0
    800029e4:	0cf72c23          	sw	a5,216(a4)
    800029e8:	8082                	ret

00000000800029ea <alsaqr_periph_padframe_periphs_pad_gpio_b_27_cfg_puen_get>:
    800029ea:	1a1047b7          	lui	a5,0x1a104
    800029ee:	0d87a503          	lw	a0,216(a5) # 1a1040d8 <_tbss_end+0x1a1040d8>
    800029f2:	0025551b          	srliw	a0,a0,0x2
    800029f6:	8905                	andi	a0,a0,1
    800029f8:	8082                	ret

00000000800029fa <alsaqr_periph_padframe_periphs_pad_gpio_b_27_mux_set>:
    800029fa:	890d                	andi	a0,a0,3
    800029fc:	1a1047b7          	lui	a5,0x1a104
    80002a00:	0ca7ae23          	sw	a0,220(a5) # 1a1040dc <_tbss_end+0x1a1040dc>
    80002a04:	8082                	ret

0000000080002a06 <alsaqr_periph_padframe_periphs_pad_gpio_b_27_mux_get>:
    80002a06:	1a1047b7          	lui	a5,0x1a104
    80002a0a:	0dc7a503          	lw	a0,220(a5) # 1a1040dc <_tbss_end+0x1a1040dc>
    80002a0e:	890d                	andi	a0,a0,3
    80002a10:	8082                	ret

0000000080002a12 <alsaqr_periph_padframe_periphs_pad_gpio_b_28_cfg_chip2pad_set>:
    80002a12:	1a104737          	lui	a4,0x1a104
    80002a16:	0e072783          	lw	a5,224(a4) # 1a1040e0 <_tbss_end+0x1a1040e0>
    80002a1a:	00a03533          	snez	a0,a0
    80002a1e:	9bf9                	andi	a5,a5,-2
    80002a20:	8fc9                	or	a5,a5,a0
    80002a22:	0ef72023          	sw	a5,224(a4)
    80002a26:	8082                	ret

0000000080002a28 <alsaqr_periph_padframe_periphs_pad_gpio_b_28_cfg_chip2pad_get>:
    80002a28:	1a1047b7          	lui	a5,0x1a104
    80002a2c:	0e07a503          	lw	a0,224(a5) # 1a1040e0 <_tbss_end+0x1a1040e0>
    80002a30:	8905                	andi	a0,a0,1
    80002a32:	8082                	ret

0000000080002a34 <alsaqr_periph_padframe_periphs_pad_gpio_b_28_cfg_oen_set>:
    80002a34:	1a104737          	lui	a4,0x1a104
    80002a38:	0e072783          	lw	a5,224(a4) # 1a1040e0 <_tbss_end+0x1a1040e0>
    80002a3c:	00a03533          	snez	a0,a0
    80002a40:	0015151b          	slliw	a0,a0,0x1
    80002a44:	9bf5                	andi	a5,a5,-3
    80002a46:	8fc9                	or	a5,a5,a0
    80002a48:	0ef72023          	sw	a5,224(a4)
    80002a4c:	8082                	ret

0000000080002a4e <alsaqr_periph_padframe_periphs_pad_gpio_b_28_cfg_oen_get>:
    80002a4e:	1a1047b7          	lui	a5,0x1a104
    80002a52:	0e07a503          	lw	a0,224(a5) # 1a1040e0 <_tbss_end+0x1a1040e0>
    80002a56:	0015551b          	srliw	a0,a0,0x1
    80002a5a:	8905                	andi	a0,a0,1
    80002a5c:	8082                	ret

0000000080002a5e <alsaqr_periph_padframe_periphs_pad_gpio_b_28_cfg_puen_set>:
    80002a5e:	1a104737          	lui	a4,0x1a104
    80002a62:	0e072783          	lw	a5,224(a4) # 1a1040e0 <_tbss_end+0x1a1040e0>
    80002a66:	00a03533          	snez	a0,a0
    80002a6a:	0025151b          	slliw	a0,a0,0x2
    80002a6e:	9bed                	andi	a5,a5,-5
    80002a70:	8fc9                	or	a5,a5,a0
    80002a72:	0ef72023          	sw	a5,224(a4)
    80002a76:	8082                	ret

0000000080002a78 <alsaqr_periph_padframe_periphs_pad_gpio_b_28_cfg_puen_get>:
    80002a78:	1a1047b7          	lui	a5,0x1a104
    80002a7c:	0e07a503          	lw	a0,224(a5) # 1a1040e0 <_tbss_end+0x1a1040e0>
    80002a80:	0025551b          	srliw	a0,a0,0x2
    80002a84:	8905                	andi	a0,a0,1
    80002a86:	8082                	ret

0000000080002a88 <alsaqr_periph_padframe_periphs_pad_gpio_b_28_mux_set>:
    80002a88:	890d                	andi	a0,a0,3
    80002a8a:	1a1047b7          	lui	a5,0x1a104
    80002a8e:	0ea7a223          	sw	a0,228(a5) # 1a1040e4 <_tbss_end+0x1a1040e4>
    80002a92:	8082                	ret

0000000080002a94 <alsaqr_periph_padframe_periphs_pad_gpio_b_28_mux_get>:
    80002a94:	1a1047b7          	lui	a5,0x1a104
    80002a98:	0e47a503          	lw	a0,228(a5) # 1a1040e4 <_tbss_end+0x1a1040e4>
    80002a9c:	890d                	andi	a0,a0,3
    80002a9e:	8082                	ret

0000000080002aa0 <alsaqr_periph_padframe_periphs_pad_gpio_b_29_cfg_chip2pad_set>:
    80002aa0:	1a104737          	lui	a4,0x1a104
    80002aa4:	0e872783          	lw	a5,232(a4) # 1a1040e8 <_tbss_end+0x1a1040e8>
    80002aa8:	00a03533          	snez	a0,a0
    80002aac:	9bf9                	andi	a5,a5,-2
    80002aae:	8fc9                	or	a5,a5,a0
    80002ab0:	0ef72423          	sw	a5,232(a4)
    80002ab4:	8082                	ret

0000000080002ab6 <alsaqr_periph_padframe_periphs_pad_gpio_b_29_cfg_chip2pad_get>:
    80002ab6:	1a1047b7          	lui	a5,0x1a104
    80002aba:	0e87a503          	lw	a0,232(a5) # 1a1040e8 <_tbss_end+0x1a1040e8>
    80002abe:	8905                	andi	a0,a0,1
    80002ac0:	8082                	ret

0000000080002ac2 <alsaqr_periph_padframe_periphs_pad_gpio_b_29_cfg_oen_set>:
    80002ac2:	1a104737          	lui	a4,0x1a104
    80002ac6:	0e872783          	lw	a5,232(a4) # 1a1040e8 <_tbss_end+0x1a1040e8>
    80002aca:	00a03533          	snez	a0,a0
    80002ace:	0015151b          	slliw	a0,a0,0x1
    80002ad2:	9bf5                	andi	a5,a5,-3
    80002ad4:	8fc9                	or	a5,a5,a0
    80002ad6:	0ef72423          	sw	a5,232(a4)
    80002ada:	8082                	ret

0000000080002adc <alsaqr_periph_padframe_periphs_pad_gpio_b_29_cfg_oen_get>:
    80002adc:	1a1047b7          	lui	a5,0x1a104
    80002ae0:	0e87a503          	lw	a0,232(a5) # 1a1040e8 <_tbss_end+0x1a1040e8>
    80002ae4:	0015551b          	srliw	a0,a0,0x1
    80002ae8:	8905                	andi	a0,a0,1
    80002aea:	8082                	ret

0000000080002aec <alsaqr_periph_padframe_periphs_pad_gpio_b_29_cfg_puen_set>:
    80002aec:	1a104737          	lui	a4,0x1a104
    80002af0:	0e872783          	lw	a5,232(a4) # 1a1040e8 <_tbss_end+0x1a1040e8>
    80002af4:	00a03533          	snez	a0,a0
    80002af8:	0025151b          	slliw	a0,a0,0x2
    80002afc:	9bed                	andi	a5,a5,-5
    80002afe:	8fc9                	or	a5,a5,a0
    80002b00:	0ef72423          	sw	a5,232(a4)
    80002b04:	8082                	ret

0000000080002b06 <alsaqr_periph_padframe_periphs_pad_gpio_b_29_cfg_puen_get>:
    80002b06:	1a1047b7          	lui	a5,0x1a104
    80002b0a:	0e87a503          	lw	a0,232(a5) # 1a1040e8 <_tbss_end+0x1a1040e8>
    80002b0e:	0025551b          	srliw	a0,a0,0x2
    80002b12:	8905                	andi	a0,a0,1
    80002b14:	8082                	ret

0000000080002b16 <alsaqr_periph_padframe_periphs_pad_gpio_b_29_mux_set>:
    80002b16:	890d                	andi	a0,a0,3
    80002b18:	1a1047b7          	lui	a5,0x1a104
    80002b1c:	0ea7a623          	sw	a0,236(a5) # 1a1040ec <_tbss_end+0x1a1040ec>
    80002b20:	8082                	ret

0000000080002b22 <alsaqr_periph_padframe_periphs_pad_gpio_b_29_mux_get>:
    80002b22:	1a1047b7          	lui	a5,0x1a104
    80002b26:	0ec7a503          	lw	a0,236(a5) # 1a1040ec <_tbss_end+0x1a1040ec>
    80002b2a:	890d                	andi	a0,a0,3
    80002b2c:	8082                	ret

0000000080002b2e <alsaqr_periph_padframe_periphs_pad_gpio_b_30_cfg_chip2pad_set>:
    80002b2e:	1a104737          	lui	a4,0x1a104
    80002b32:	0f072783          	lw	a5,240(a4) # 1a1040f0 <_tbss_end+0x1a1040f0>
    80002b36:	00a03533          	snez	a0,a0
    80002b3a:	9bf9                	andi	a5,a5,-2
    80002b3c:	8fc9                	or	a5,a5,a0
    80002b3e:	0ef72823          	sw	a5,240(a4)
    80002b42:	8082                	ret

0000000080002b44 <alsaqr_periph_padframe_periphs_pad_gpio_b_30_cfg_chip2pad_get>:
    80002b44:	1a1047b7          	lui	a5,0x1a104
    80002b48:	0f07a503          	lw	a0,240(a5) # 1a1040f0 <_tbss_end+0x1a1040f0>
    80002b4c:	8905                	andi	a0,a0,1
    80002b4e:	8082                	ret

0000000080002b50 <alsaqr_periph_padframe_periphs_pad_gpio_b_30_cfg_oen_set>:
    80002b50:	1a104737          	lui	a4,0x1a104
    80002b54:	0f072783          	lw	a5,240(a4) # 1a1040f0 <_tbss_end+0x1a1040f0>
    80002b58:	00a03533          	snez	a0,a0
    80002b5c:	0015151b          	slliw	a0,a0,0x1
    80002b60:	9bf5                	andi	a5,a5,-3
    80002b62:	8fc9                	or	a5,a5,a0
    80002b64:	0ef72823          	sw	a5,240(a4)
    80002b68:	8082                	ret

0000000080002b6a <alsaqr_periph_padframe_periphs_pad_gpio_b_30_cfg_oen_get>:
    80002b6a:	1a1047b7          	lui	a5,0x1a104
    80002b6e:	0f07a503          	lw	a0,240(a5) # 1a1040f0 <_tbss_end+0x1a1040f0>
    80002b72:	0015551b          	srliw	a0,a0,0x1
    80002b76:	8905                	andi	a0,a0,1
    80002b78:	8082                	ret

0000000080002b7a <alsaqr_periph_padframe_periphs_pad_gpio_b_30_cfg_puen_set>:
    80002b7a:	1a104737          	lui	a4,0x1a104
    80002b7e:	0f072783          	lw	a5,240(a4) # 1a1040f0 <_tbss_end+0x1a1040f0>
    80002b82:	00a03533          	snez	a0,a0
    80002b86:	0025151b          	slliw	a0,a0,0x2
    80002b8a:	9bed                	andi	a5,a5,-5
    80002b8c:	8fc9                	or	a5,a5,a0
    80002b8e:	0ef72823          	sw	a5,240(a4)
    80002b92:	8082                	ret

0000000080002b94 <alsaqr_periph_padframe_periphs_pad_gpio_b_30_cfg_puen_get>:
    80002b94:	1a1047b7          	lui	a5,0x1a104
    80002b98:	0f07a503          	lw	a0,240(a5) # 1a1040f0 <_tbss_end+0x1a1040f0>
    80002b9c:	0025551b          	srliw	a0,a0,0x2
    80002ba0:	8905                	andi	a0,a0,1
    80002ba2:	8082                	ret

0000000080002ba4 <alsaqr_periph_padframe_periphs_pad_gpio_b_30_mux_set>:
    80002ba4:	890d                	andi	a0,a0,3
    80002ba6:	1a1047b7          	lui	a5,0x1a104
    80002baa:	0ea7aa23          	sw	a0,244(a5) # 1a1040f4 <_tbss_end+0x1a1040f4>
    80002bae:	8082                	ret

0000000080002bb0 <alsaqr_periph_padframe_periphs_pad_gpio_b_30_mux_get>:
    80002bb0:	1a1047b7          	lui	a5,0x1a104
    80002bb4:	0f47a503          	lw	a0,244(a5) # 1a1040f4 <_tbss_end+0x1a1040f4>
    80002bb8:	890d                	andi	a0,a0,3
    80002bba:	8082                	ret

0000000080002bbc <alsaqr_periph_padframe_periphs_pad_gpio_b_31_cfg_chip2pad_set>:
    80002bbc:	1a104737          	lui	a4,0x1a104
    80002bc0:	0f872783          	lw	a5,248(a4) # 1a1040f8 <_tbss_end+0x1a1040f8>
    80002bc4:	00a03533          	snez	a0,a0
    80002bc8:	9bf9                	andi	a5,a5,-2
    80002bca:	8fc9                	or	a5,a5,a0
    80002bcc:	0ef72c23          	sw	a5,248(a4)
    80002bd0:	8082                	ret

0000000080002bd2 <alsaqr_periph_padframe_periphs_pad_gpio_b_31_cfg_chip2pad_get>:
    80002bd2:	1a1047b7          	lui	a5,0x1a104
    80002bd6:	0f87a503          	lw	a0,248(a5) # 1a1040f8 <_tbss_end+0x1a1040f8>
    80002bda:	8905                	andi	a0,a0,1
    80002bdc:	8082                	ret

0000000080002bde <alsaqr_periph_padframe_periphs_pad_gpio_b_31_cfg_oen_set>:
    80002bde:	1a104737          	lui	a4,0x1a104
    80002be2:	0f872783          	lw	a5,248(a4) # 1a1040f8 <_tbss_end+0x1a1040f8>
    80002be6:	00a03533          	snez	a0,a0
    80002bea:	0015151b          	slliw	a0,a0,0x1
    80002bee:	9bf5                	andi	a5,a5,-3
    80002bf0:	8fc9                	or	a5,a5,a0
    80002bf2:	0ef72c23          	sw	a5,248(a4)
    80002bf6:	8082                	ret

0000000080002bf8 <alsaqr_periph_padframe_periphs_pad_gpio_b_31_cfg_oen_get>:
    80002bf8:	1a1047b7          	lui	a5,0x1a104
    80002bfc:	0f87a503          	lw	a0,248(a5) # 1a1040f8 <_tbss_end+0x1a1040f8>
    80002c00:	0015551b          	srliw	a0,a0,0x1
    80002c04:	8905                	andi	a0,a0,1
    80002c06:	8082                	ret

0000000080002c08 <alsaqr_periph_padframe_periphs_pad_gpio_b_31_cfg_puen_set>:
    80002c08:	1a104737          	lui	a4,0x1a104
    80002c0c:	0f872783          	lw	a5,248(a4) # 1a1040f8 <_tbss_end+0x1a1040f8>
    80002c10:	00a03533          	snez	a0,a0
    80002c14:	0025151b          	slliw	a0,a0,0x2
    80002c18:	9bed                	andi	a5,a5,-5
    80002c1a:	8fc9                	or	a5,a5,a0
    80002c1c:	0ef72c23          	sw	a5,248(a4)
    80002c20:	8082                	ret

0000000080002c22 <alsaqr_periph_padframe_periphs_pad_gpio_b_31_cfg_puen_get>:
    80002c22:	1a1047b7          	lui	a5,0x1a104
    80002c26:	0f87a503          	lw	a0,248(a5) # 1a1040f8 <_tbss_end+0x1a1040f8>
    80002c2a:	0025551b          	srliw	a0,a0,0x2
    80002c2e:	8905                	andi	a0,a0,1
    80002c30:	8082                	ret

0000000080002c32 <alsaqr_periph_padframe_periphs_pad_gpio_b_31_mux_set>:
    80002c32:	890d                	andi	a0,a0,3
    80002c34:	1a1047b7          	lui	a5,0x1a104
    80002c38:	0ea7ae23          	sw	a0,252(a5) # 1a1040fc <_tbss_end+0x1a1040fc>
    80002c3c:	8082                	ret

0000000080002c3e <alsaqr_periph_padframe_periphs_pad_gpio_b_31_mux_get>:
    80002c3e:	1a1047b7          	lui	a5,0x1a104
    80002c42:	0fc7a503          	lw	a0,252(a5) # 1a1040fc <_tbss_end+0x1a1040fc>
    80002c46:	890d                	andi	a0,a0,3
    80002c48:	8082                	ret

0000000080002c4a <alsaqr_periph_padframe_periphs_pad_gpio_b_32_cfg_chip2pad_set>:
    80002c4a:	1a104737          	lui	a4,0x1a104
    80002c4e:	10072783          	lw	a5,256(a4) # 1a104100 <_tbss_end+0x1a104100>
    80002c52:	00a03533          	snez	a0,a0
    80002c56:	9bf9                	andi	a5,a5,-2
    80002c58:	8fc9                	or	a5,a5,a0
    80002c5a:	10f72023          	sw	a5,256(a4)
    80002c5e:	8082                	ret

0000000080002c60 <alsaqr_periph_padframe_periphs_pad_gpio_b_32_cfg_chip2pad_get>:
    80002c60:	1a1047b7          	lui	a5,0x1a104
    80002c64:	1007a503          	lw	a0,256(a5) # 1a104100 <_tbss_end+0x1a104100>
    80002c68:	8905                	andi	a0,a0,1
    80002c6a:	8082                	ret

0000000080002c6c <alsaqr_periph_padframe_periphs_pad_gpio_b_32_cfg_oen_set>:
    80002c6c:	1a104737          	lui	a4,0x1a104
    80002c70:	10072783          	lw	a5,256(a4) # 1a104100 <_tbss_end+0x1a104100>
    80002c74:	00a03533          	snez	a0,a0
    80002c78:	0015151b          	slliw	a0,a0,0x1
    80002c7c:	9bf5                	andi	a5,a5,-3
    80002c7e:	8fc9                	or	a5,a5,a0
    80002c80:	10f72023          	sw	a5,256(a4)
    80002c84:	8082                	ret

0000000080002c86 <alsaqr_periph_padframe_periphs_pad_gpio_b_32_cfg_oen_get>:
    80002c86:	1a1047b7          	lui	a5,0x1a104
    80002c8a:	1007a503          	lw	a0,256(a5) # 1a104100 <_tbss_end+0x1a104100>
    80002c8e:	0015551b          	srliw	a0,a0,0x1
    80002c92:	8905                	andi	a0,a0,1
    80002c94:	8082                	ret

0000000080002c96 <alsaqr_periph_padframe_periphs_pad_gpio_b_32_cfg_puen_set>:
    80002c96:	1a104737          	lui	a4,0x1a104
    80002c9a:	10072783          	lw	a5,256(a4) # 1a104100 <_tbss_end+0x1a104100>
    80002c9e:	00a03533          	snez	a0,a0
    80002ca2:	0025151b          	slliw	a0,a0,0x2
    80002ca6:	9bed                	andi	a5,a5,-5
    80002ca8:	8fc9                	or	a5,a5,a0
    80002caa:	10f72023          	sw	a5,256(a4)
    80002cae:	8082                	ret

0000000080002cb0 <alsaqr_periph_padframe_periphs_pad_gpio_b_32_cfg_puen_get>:
    80002cb0:	1a1047b7          	lui	a5,0x1a104
    80002cb4:	1007a503          	lw	a0,256(a5) # 1a104100 <_tbss_end+0x1a104100>
    80002cb8:	0025551b          	srliw	a0,a0,0x2
    80002cbc:	8905                	andi	a0,a0,1
    80002cbe:	8082                	ret

0000000080002cc0 <alsaqr_periph_padframe_periphs_pad_gpio_b_32_mux_set>:
    80002cc0:	890d                	andi	a0,a0,3
    80002cc2:	1a1047b7          	lui	a5,0x1a104
    80002cc6:	10a7a223          	sw	a0,260(a5) # 1a104104 <_tbss_end+0x1a104104>
    80002cca:	8082                	ret

0000000080002ccc <alsaqr_periph_padframe_periphs_pad_gpio_b_32_mux_get>:
    80002ccc:	1a1047b7          	lui	a5,0x1a104
    80002cd0:	1047a503          	lw	a0,260(a5) # 1a104104 <_tbss_end+0x1a104104>
    80002cd4:	890d                	andi	a0,a0,3
    80002cd6:	8082                	ret

0000000080002cd8 <alsaqr_periph_padframe_periphs_pad_gpio_b_33_cfg_chip2pad_set>:
    80002cd8:	1a104737          	lui	a4,0x1a104
    80002cdc:	10872783          	lw	a5,264(a4) # 1a104108 <_tbss_end+0x1a104108>
    80002ce0:	00a03533          	snez	a0,a0
    80002ce4:	9bf9                	andi	a5,a5,-2
    80002ce6:	8fc9                	or	a5,a5,a0
    80002ce8:	10f72423          	sw	a5,264(a4)
    80002cec:	8082                	ret

0000000080002cee <alsaqr_periph_padframe_periphs_pad_gpio_b_33_cfg_chip2pad_get>:
    80002cee:	1a1047b7          	lui	a5,0x1a104
    80002cf2:	1087a503          	lw	a0,264(a5) # 1a104108 <_tbss_end+0x1a104108>
    80002cf6:	8905                	andi	a0,a0,1
    80002cf8:	8082                	ret

0000000080002cfa <alsaqr_periph_padframe_periphs_pad_gpio_b_33_cfg_oen_set>:
    80002cfa:	1a104737          	lui	a4,0x1a104
    80002cfe:	10872783          	lw	a5,264(a4) # 1a104108 <_tbss_end+0x1a104108>
    80002d02:	00a03533          	snez	a0,a0
    80002d06:	0015151b          	slliw	a0,a0,0x1
    80002d0a:	9bf5                	andi	a5,a5,-3
    80002d0c:	8fc9                	or	a5,a5,a0
    80002d0e:	10f72423          	sw	a5,264(a4)
    80002d12:	8082                	ret

0000000080002d14 <alsaqr_periph_padframe_periphs_pad_gpio_b_33_cfg_oen_get>:
    80002d14:	1a1047b7          	lui	a5,0x1a104
    80002d18:	1087a503          	lw	a0,264(a5) # 1a104108 <_tbss_end+0x1a104108>
    80002d1c:	0015551b          	srliw	a0,a0,0x1
    80002d20:	8905                	andi	a0,a0,1
    80002d22:	8082                	ret

0000000080002d24 <alsaqr_periph_padframe_periphs_pad_gpio_b_33_cfg_puen_set>:
    80002d24:	1a104737          	lui	a4,0x1a104
    80002d28:	10872783          	lw	a5,264(a4) # 1a104108 <_tbss_end+0x1a104108>
    80002d2c:	00a03533          	snez	a0,a0
    80002d30:	0025151b          	slliw	a0,a0,0x2
    80002d34:	9bed                	andi	a5,a5,-5
    80002d36:	8fc9                	or	a5,a5,a0
    80002d38:	10f72423          	sw	a5,264(a4)
    80002d3c:	8082                	ret

0000000080002d3e <alsaqr_periph_padframe_periphs_pad_gpio_b_33_cfg_puen_get>:
    80002d3e:	1a1047b7          	lui	a5,0x1a104
    80002d42:	1087a503          	lw	a0,264(a5) # 1a104108 <_tbss_end+0x1a104108>
    80002d46:	0025551b          	srliw	a0,a0,0x2
    80002d4a:	8905                	andi	a0,a0,1
    80002d4c:	8082                	ret

0000000080002d4e <alsaqr_periph_padframe_periphs_pad_gpio_b_33_mux_set>:
    80002d4e:	890d                	andi	a0,a0,3
    80002d50:	1a1047b7          	lui	a5,0x1a104
    80002d54:	10a7a623          	sw	a0,268(a5) # 1a10410c <_tbss_end+0x1a10410c>
    80002d58:	8082                	ret

0000000080002d5a <alsaqr_periph_padframe_periphs_pad_gpio_b_33_mux_get>:
    80002d5a:	1a1047b7          	lui	a5,0x1a104
    80002d5e:	10c7a503          	lw	a0,268(a5) # 1a10410c <_tbss_end+0x1a10410c>
    80002d62:	890d                	andi	a0,a0,3
    80002d64:	8082                	ret

0000000080002d66 <alsaqr_periph_padframe_periphs_pad_gpio_b_34_cfg_chip2pad_set>:
    80002d66:	1a104737          	lui	a4,0x1a104
    80002d6a:	11072783          	lw	a5,272(a4) # 1a104110 <_tbss_end+0x1a104110>
    80002d6e:	00a03533          	snez	a0,a0
    80002d72:	9bf9                	andi	a5,a5,-2
    80002d74:	8fc9                	or	a5,a5,a0
    80002d76:	10f72823          	sw	a5,272(a4)
    80002d7a:	8082                	ret

0000000080002d7c <alsaqr_periph_padframe_periphs_pad_gpio_b_34_cfg_chip2pad_get>:
    80002d7c:	1a1047b7          	lui	a5,0x1a104
    80002d80:	1107a503          	lw	a0,272(a5) # 1a104110 <_tbss_end+0x1a104110>
    80002d84:	8905                	andi	a0,a0,1
    80002d86:	8082                	ret

0000000080002d88 <alsaqr_periph_padframe_periphs_pad_gpio_b_34_cfg_oen_set>:
    80002d88:	1a104737          	lui	a4,0x1a104
    80002d8c:	11072783          	lw	a5,272(a4) # 1a104110 <_tbss_end+0x1a104110>
    80002d90:	00a03533          	snez	a0,a0
    80002d94:	0015151b          	slliw	a0,a0,0x1
    80002d98:	9bf5                	andi	a5,a5,-3
    80002d9a:	8fc9                	or	a5,a5,a0
    80002d9c:	10f72823          	sw	a5,272(a4)
    80002da0:	8082                	ret

0000000080002da2 <alsaqr_periph_padframe_periphs_pad_gpio_b_34_cfg_oen_get>:
    80002da2:	1a1047b7          	lui	a5,0x1a104
    80002da6:	1107a503          	lw	a0,272(a5) # 1a104110 <_tbss_end+0x1a104110>
    80002daa:	0015551b          	srliw	a0,a0,0x1
    80002dae:	8905                	andi	a0,a0,1
    80002db0:	8082                	ret

0000000080002db2 <alsaqr_periph_padframe_periphs_pad_gpio_b_34_cfg_puen_set>:
    80002db2:	1a104737          	lui	a4,0x1a104
    80002db6:	11072783          	lw	a5,272(a4) # 1a104110 <_tbss_end+0x1a104110>
    80002dba:	00a03533          	snez	a0,a0
    80002dbe:	0025151b          	slliw	a0,a0,0x2
    80002dc2:	9bed                	andi	a5,a5,-5
    80002dc4:	8fc9                	or	a5,a5,a0
    80002dc6:	10f72823          	sw	a5,272(a4)
    80002dca:	8082                	ret

0000000080002dcc <alsaqr_periph_padframe_periphs_pad_gpio_b_34_cfg_puen_get>:
    80002dcc:	1a1047b7          	lui	a5,0x1a104
    80002dd0:	1107a503          	lw	a0,272(a5) # 1a104110 <_tbss_end+0x1a104110>
    80002dd4:	0025551b          	srliw	a0,a0,0x2
    80002dd8:	8905                	andi	a0,a0,1
    80002dda:	8082                	ret

0000000080002ddc <alsaqr_periph_padframe_periphs_pad_gpio_b_34_mux_set>:
    80002ddc:	890d                	andi	a0,a0,3
    80002dde:	1a1047b7          	lui	a5,0x1a104
    80002de2:	10a7aa23          	sw	a0,276(a5) # 1a104114 <_tbss_end+0x1a104114>
    80002de6:	8082                	ret

0000000080002de8 <alsaqr_periph_padframe_periphs_pad_gpio_b_34_mux_get>:
    80002de8:	1a1047b7          	lui	a5,0x1a104
    80002dec:	1147a503          	lw	a0,276(a5) # 1a104114 <_tbss_end+0x1a104114>
    80002df0:	890d                	andi	a0,a0,3
    80002df2:	8082                	ret

0000000080002df4 <alsaqr_periph_padframe_periphs_pad_gpio_b_35_cfg_chip2pad_set>:
    80002df4:	1a104737          	lui	a4,0x1a104
    80002df8:	11872783          	lw	a5,280(a4) # 1a104118 <_tbss_end+0x1a104118>
    80002dfc:	00a03533          	snez	a0,a0
    80002e00:	9bf9                	andi	a5,a5,-2
    80002e02:	8fc9                	or	a5,a5,a0
    80002e04:	10f72c23          	sw	a5,280(a4)
    80002e08:	8082                	ret

0000000080002e0a <alsaqr_periph_padframe_periphs_pad_gpio_b_35_cfg_chip2pad_get>:
    80002e0a:	1a1047b7          	lui	a5,0x1a104
    80002e0e:	1187a503          	lw	a0,280(a5) # 1a104118 <_tbss_end+0x1a104118>
    80002e12:	8905                	andi	a0,a0,1
    80002e14:	8082                	ret

0000000080002e16 <alsaqr_periph_padframe_periphs_pad_gpio_b_35_cfg_oen_set>:
    80002e16:	1a104737          	lui	a4,0x1a104
    80002e1a:	11872783          	lw	a5,280(a4) # 1a104118 <_tbss_end+0x1a104118>
    80002e1e:	00a03533          	snez	a0,a0
    80002e22:	0015151b          	slliw	a0,a0,0x1
    80002e26:	9bf5                	andi	a5,a5,-3
    80002e28:	8fc9                	or	a5,a5,a0
    80002e2a:	10f72c23          	sw	a5,280(a4)
    80002e2e:	8082                	ret

0000000080002e30 <alsaqr_periph_padframe_periphs_pad_gpio_b_35_cfg_oen_get>:
    80002e30:	1a1047b7          	lui	a5,0x1a104
    80002e34:	1187a503          	lw	a0,280(a5) # 1a104118 <_tbss_end+0x1a104118>
    80002e38:	0015551b          	srliw	a0,a0,0x1
    80002e3c:	8905                	andi	a0,a0,1
    80002e3e:	8082                	ret

0000000080002e40 <alsaqr_periph_padframe_periphs_pad_gpio_b_35_cfg_puen_set>:
    80002e40:	1a104737          	lui	a4,0x1a104
    80002e44:	11872783          	lw	a5,280(a4) # 1a104118 <_tbss_end+0x1a104118>
    80002e48:	00a03533          	snez	a0,a0
    80002e4c:	0025151b          	slliw	a0,a0,0x2
    80002e50:	9bed                	andi	a5,a5,-5
    80002e52:	8fc9                	or	a5,a5,a0
    80002e54:	10f72c23          	sw	a5,280(a4)
    80002e58:	8082                	ret

0000000080002e5a <alsaqr_periph_padframe_periphs_pad_gpio_b_35_cfg_puen_get>:
    80002e5a:	1a1047b7          	lui	a5,0x1a104
    80002e5e:	1187a503          	lw	a0,280(a5) # 1a104118 <_tbss_end+0x1a104118>
    80002e62:	0025551b          	srliw	a0,a0,0x2
    80002e66:	8905                	andi	a0,a0,1
    80002e68:	8082                	ret

0000000080002e6a <alsaqr_periph_padframe_periphs_pad_gpio_b_35_mux_set>:
    80002e6a:	890d                	andi	a0,a0,3
    80002e6c:	1a1047b7          	lui	a5,0x1a104
    80002e70:	10a7ae23          	sw	a0,284(a5) # 1a10411c <_tbss_end+0x1a10411c>
    80002e74:	8082                	ret

0000000080002e76 <alsaqr_periph_padframe_periphs_pad_gpio_b_35_mux_get>:
    80002e76:	1a1047b7          	lui	a5,0x1a104
    80002e7a:	11c7a503          	lw	a0,284(a5) # 1a10411c <_tbss_end+0x1a10411c>
    80002e7e:	890d                	andi	a0,a0,3
    80002e80:	8082                	ret

0000000080002e82 <alsaqr_periph_padframe_periphs_pad_gpio_b_36_cfg_chip2pad_set>:
    80002e82:	1a104737          	lui	a4,0x1a104
    80002e86:	12072783          	lw	a5,288(a4) # 1a104120 <_tbss_end+0x1a104120>
    80002e8a:	00a03533          	snez	a0,a0
    80002e8e:	9bf9                	andi	a5,a5,-2
    80002e90:	8fc9                	or	a5,a5,a0
    80002e92:	12f72023          	sw	a5,288(a4)
    80002e96:	8082                	ret

0000000080002e98 <alsaqr_periph_padframe_periphs_pad_gpio_b_36_cfg_chip2pad_get>:
    80002e98:	1a1047b7          	lui	a5,0x1a104
    80002e9c:	1207a503          	lw	a0,288(a5) # 1a104120 <_tbss_end+0x1a104120>
    80002ea0:	8905                	andi	a0,a0,1
    80002ea2:	8082                	ret

0000000080002ea4 <alsaqr_periph_padframe_periphs_pad_gpio_b_36_cfg_oen_set>:
    80002ea4:	1a104737          	lui	a4,0x1a104
    80002ea8:	12072783          	lw	a5,288(a4) # 1a104120 <_tbss_end+0x1a104120>
    80002eac:	00a03533          	snez	a0,a0
    80002eb0:	0015151b          	slliw	a0,a0,0x1
    80002eb4:	9bf5                	andi	a5,a5,-3
    80002eb6:	8fc9                	or	a5,a5,a0
    80002eb8:	12f72023          	sw	a5,288(a4)
    80002ebc:	8082                	ret

0000000080002ebe <alsaqr_periph_padframe_periphs_pad_gpio_b_36_cfg_oen_get>:
    80002ebe:	1a1047b7          	lui	a5,0x1a104
    80002ec2:	1207a503          	lw	a0,288(a5) # 1a104120 <_tbss_end+0x1a104120>
    80002ec6:	0015551b          	srliw	a0,a0,0x1
    80002eca:	8905                	andi	a0,a0,1
    80002ecc:	8082                	ret

0000000080002ece <alsaqr_periph_padframe_periphs_pad_gpio_b_36_cfg_puen_set>:
    80002ece:	1a104737          	lui	a4,0x1a104
    80002ed2:	12072783          	lw	a5,288(a4) # 1a104120 <_tbss_end+0x1a104120>
    80002ed6:	00a03533          	snez	a0,a0
    80002eda:	0025151b          	slliw	a0,a0,0x2
    80002ede:	9bed                	andi	a5,a5,-5
    80002ee0:	8fc9                	or	a5,a5,a0
    80002ee2:	12f72023          	sw	a5,288(a4)
    80002ee6:	8082                	ret

0000000080002ee8 <alsaqr_periph_padframe_periphs_pad_gpio_b_36_cfg_puen_get>:
    80002ee8:	1a1047b7          	lui	a5,0x1a104
    80002eec:	1207a503          	lw	a0,288(a5) # 1a104120 <_tbss_end+0x1a104120>
    80002ef0:	0025551b          	srliw	a0,a0,0x2
    80002ef4:	8905                	andi	a0,a0,1
    80002ef6:	8082                	ret

0000000080002ef8 <alsaqr_periph_padframe_periphs_pad_gpio_b_36_mux_set>:
    80002ef8:	890d                	andi	a0,a0,3
    80002efa:	1a1047b7          	lui	a5,0x1a104
    80002efe:	12a7a223          	sw	a0,292(a5) # 1a104124 <_tbss_end+0x1a104124>
    80002f02:	8082                	ret

0000000080002f04 <alsaqr_periph_padframe_periphs_pad_gpio_b_36_mux_get>:
    80002f04:	1a1047b7          	lui	a5,0x1a104
    80002f08:	1247a503          	lw	a0,292(a5) # 1a104124 <_tbss_end+0x1a104124>
    80002f0c:	890d                	andi	a0,a0,3
    80002f0e:	8082                	ret

0000000080002f10 <alsaqr_periph_padframe_periphs_pad_gpio_b_37_cfg_chip2pad_set>:
    80002f10:	1a104737          	lui	a4,0x1a104
    80002f14:	12872783          	lw	a5,296(a4) # 1a104128 <_tbss_end+0x1a104128>
    80002f18:	00a03533          	snez	a0,a0
    80002f1c:	9bf9                	andi	a5,a5,-2
    80002f1e:	8fc9                	or	a5,a5,a0
    80002f20:	12f72423          	sw	a5,296(a4)
    80002f24:	8082                	ret

0000000080002f26 <alsaqr_periph_padframe_periphs_pad_gpio_b_37_cfg_chip2pad_get>:
    80002f26:	1a1047b7          	lui	a5,0x1a104
    80002f2a:	1287a503          	lw	a0,296(a5) # 1a104128 <_tbss_end+0x1a104128>
    80002f2e:	8905                	andi	a0,a0,1
    80002f30:	8082                	ret

0000000080002f32 <alsaqr_periph_padframe_periphs_pad_gpio_b_37_cfg_oen_set>:
    80002f32:	1a104737          	lui	a4,0x1a104
    80002f36:	12872783          	lw	a5,296(a4) # 1a104128 <_tbss_end+0x1a104128>
    80002f3a:	00a03533          	snez	a0,a0
    80002f3e:	0015151b          	slliw	a0,a0,0x1
    80002f42:	9bf5                	andi	a5,a5,-3
    80002f44:	8fc9                	or	a5,a5,a0
    80002f46:	12f72423          	sw	a5,296(a4)
    80002f4a:	8082                	ret

0000000080002f4c <alsaqr_periph_padframe_periphs_pad_gpio_b_37_cfg_oen_get>:
    80002f4c:	1a1047b7          	lui	a5,0x1a104
    80002f50:	1287a503          	lw	a0,296(a5) # 1a104128 <_tbss_end+0x1a104128>
    80002f54:	0015551b          	srliw	a0,a0,0x1
    80002f58:	8905                	andi	a0,a0,1
    80002f5a:	8082                	ret

0000000080002f5c <alsaqr_periph_padframe_periphs_pad_gpio_b_37_cfg_puen_set>:
    80002f5c:	1a104737          	lui	a4,0x1a104
    80002f60:	12872783          	lw	a5,296(a4) # 1a104128 <_tbss_end+0x1a104128>
    80002f64:	00a03533          	snez	a0,a0
    80002f68:	0025151b          	slliw	a0,a0,0x2
    80002f6c:	9bed                	andi	a5,a5,-5
    80002f6e:	8fc9                	or	a5,a5,a0
    80002f70:	12f72423          	sw	a5,296(a4)
    80002f74:	8082                	ret

0000000080002f76 <alsaqr_periph_padframe_periphs_pad_gpio_b_37_cfg_puen_get>:
    80002f76:	1a1047b7          	lui	a5,0x1a104
    80002f7a:	1287a503          	lw	a0,296(a5) # 1a104128 <_tbss_end+0x1a104128>
    80002f7e:	0025551b          	srliw	a0,a0,0x2
    80002f82:	8905                	andi	a0,a0,1
    80002f84:	8082                	ret

0000000080002f86 <alsaqr_periph_padframe_periphs_pad_gpio_b_37_mux_set>:
    80002f86:	890d                	andi	a0,a0,3
    80002f88:	1a1047b7          	lui	a5,0x1a104
    80002f8c:	12a7a623          	sw	a0,300(a5) # 1a10412c <_tbss_end+0x1a10412c>
    80002f90:	8082                	ret

0000000080002f92 <alsaqr_periph_padframe_periphs_pad_gpio_b_37_mux_get>:
    80002f92:	1a1047b7          	lui	a5,0x1a104
    80002f96:	12c7a503          	lw	a0,300(a5) # 1a10412c <_tbss_end+0x1a10412c>
    80002f9a:	890d                	andi	a0,a0,3
    80002f9c:	8082                	ret

0000000080002f9e <alsaqr_periph_padframe_periphs_pad_gpio_b_38_cfg_chip2pad_set>:
    80002f9e:	1a104737          	lui	a4,0x1a104
    80002fa2:	13072783          	lw	a5,304(a4) # 1a104130 <_tbss_end+0x1a104130>
    80002fa6:	00a03533          	snez	a0,a0
    80002faa:	9bf9                	andi	a5,a5,-2
    80002fac:	8fc9                	or	a5,a5,a0
    80002fae:	12f72823          	sw	a5,304(a4)
    80002fb2:	8082                	ret

0000000080002fb4 <alsaqr_periph_padframe_periphs_pad_gpio_b_38_cfg_chip2pad_get>:
    80002fb4:	1a1047b7          	lui	a5,0x1a104
    80002fb8:	1307a503          	lw	a0,304(a5) # 1a104130 <_tbss_end+0x1a104130>
    80002fbc:	8905                	andi	a0,a0,1
    80002fbe:	8082                	ret

0000000080002fc0 <alsaqr_periph_padframe_periphs_pad_gpio_b_38_cfg_oen_set>:
    80002fc0:	1a104737          	lui	a4,0x1a104
    80002fc4:	13072783          	lw	a5,304(a4) # 1a104130 <_tbss_end+0x1a104130>
    80002fc8:	00a03533          	snez	a0,a0
    80002fcc:	0015151b          	slliw	a0,a0,0x1
    80002fd0:	9bf5                	andi	a5,a5,-3
    80002fd2:	8fc9                	or	a5,a5,a0
    80002fd4:	12f72823          	sw	a5,304(a4)
    80002fd8:	8082                	ret

0000000080002fda <alsaqr_periph_padframe_periphs_pad_gpio_b_38_cfg_oen_get>:
    80002fda:	1a1047b7          	lui	a5,0x1a104
    80002fde:	1307a503          	lw	a0,304(a5) # 1a104130 <_tbss_end+0x1a104130>
    80002fe2:	0015551b          	srliw	a0,a0,0x1
    80002fe6:	8905                	andi	a0,a0,1
    80002fe8:	8082                	ret

0000000080002fea <alsaqr_periph_padframe_periphs_pad_gpio_b_38_cfg_puen_set>:
    80002fea:	1a104737          	lui	a4,0x1a104
    80002fee:	13072783          	lw	a5,304(a4) # 1a104130 <_tbss_end+0x1a104130>
    80002ff2:	00a03533          	snez	a0,a0
    80002ff6:	0025151b          	slliw	a0,a0,0x2
    80002ffa:	9bed                	andi	a5,a5,-5
    80002ffc:	8fc9                	or	a5,a5,a0
    80002ffe:	12f72823          	sw	a5,304(a4)
    80003002:	8082                	ret

0000000080003004 <alsaqr_periph_padframe_periphs_pad_gpio_b_38_cfg_puen_get>:
    80003004:	1a1047b7          	lui	a5,0x1a104
    80003008:	1307a503          	lw	a0,304(a5) # 1a104130 <_tbss_end+0x1a104130>
    8000300c:	0025551b          	srliw	a0,a0,0x2
    80003010:	8905                	andi	a0,a0,1
    80003012:	8082                	ret

0000000080003014 <alsaqr_periph_padframe_periphs_pad_gpio_b_38_mux_set>:
    80003014:	890d                	andi	a0,a0,3
    80003016:	1a1047b7          	lui	a5,0x1a104
    8000301a:	12a7aa23          	sw	a0,308(a5) # 1a104134 <_tbss_end+0x1a104134>
    8000301e:	8082                	ret

0000000080003020 <alsaqr_periph_padframe_periphs_pad_gpio_b_38_mux_get>:
    80003020:	1a1047b7          	lui	a5,0x1a104
    80003024:	1347a503          	lw	a0,308(a5) # 1a104134 <_tbss_end+0x1a104134>
    80003028:	890d                	andi	a0,a0,3
    8000302a:	8082                	ret

000000008000302c <alsaqr_periph_padframe_periphs_pad_gpio_b_39_cfg_chip2pad_set>:
    8000302c:	1a104737          	lui	a4,0x1a104
    80003030:	13872783          	lw	a5,312(a4) # 1a104138 <_tbss_end+0x1a104138>
    80003034:	00a03533          	snez	a0,a0
    80003038:	9bf9                	andi	a5,a5,-2
    8000303a:	8fc9                	or	a5,a5,a0
    8000303c:	12f72c23          	sw	a5,312(a4)
    80003040:	8082                	ret

0000000080003042 <alsaqr_periph_padframe_periphs_pad_gpio_b_39_cfg_chip2pad_get>:
    80003042:	1a1047b7          	lui	a5,0x1a104
    80003046:	1387a503          	lw	a0,312(a5) # 1a104138 <_tbss_end+0x1a104138>
    8000304a:	8905                	andi	a0,a0,1
    8000304c:	8082                	ret

000000008000304e <alsaqr_periph_padframe_periphs_pad_gpio_b_39_cfg_oen_set>:
    8000304e:	1a104737          	lui	a4,0x1a104
    80003052:	13872783          	lw	a5,312(a4) # 1a104138 <_tbss_end+0x1a104138>
    80003056:	00a03533          	snez	a0,a0
    8000305a:	0015151b          	slliw	a0,a0,0x1
    8000305e:	9bf5                	andi	a5,a5,-3
    80003060:	8fc9                	or	a5,a5,a0
    80003062:	12f72c23          	sw	a5,312(a4)
    80003066:	8082                	ret

0000000080003068 <alsaqr_periph_padframe_periphs_pad_gpio_b_39_cfg_oen_get>:
    80003068:	1a1047b7          	lui	a5,0x1a104
    8000306c:	1387a503          	lw	a0,312(a5) # 1a104138 <_tbss_end+0x1a104138>
    80003070:	0015551b          	srliw	a0,a0,0x1
    80003074:	8905                	andi	a0,a0,1
    80003076:	8082                	ret

0000000080003078 <alsaqr_periph_padframe_periphs_pad_gpio_b_39_cfg_puen_set>:
    80003078:	1a104737          	lui	a4,0x1a104
    8000307c:	13872783          	lw	a5,312(a4) # 1a104138 <_tbss_end+0x1a104138>
    80003080:	00a03533          	snez	a0,a0
    80003084:	0025151b          	slliw	a0,a0,0x2
    80003088:	9bed                	andi	a5,a5,-5
    8000308a:	8fc9                	or	a5,a5,a0
    8000308c:	12f72c23          	sw	a5,312(a4)
    80003090:	8082                	ret

0000000080003092 <alsaqr_periph_padframe_periphs_pad_gpio_b_39_cfg_puen_get>:
    80003092:	1a1047b7          	lui	a5,0x1a104
    80003096:	1387a503          	lw	a0,312(a5) # 1a104138 <_tbss_end+0x1a104138>
    8000309a:	0025551b          	srliw	a0,a0,0x2
    8000309e:	8905                	andi	a0,a0,1
    800030a0:	8082                	ret

00000000800030a2 <alsaqr_periph_padframe_periphs_pad_gpio_b_39_mux_set>:
    800030a2:	890d                	andi	a0,a0,3
    800030a4:	1a1047b7          	lui	a5,0x1a104
    800030a8:	12a7ae23          	sw	a0,316(a5) # 1a10413c <_tbss_end+0x1a10413c>
    800030ac:	8082                	ret

00000000800030ae <alsaqr_periph_padframe_periphs_pad_gpio_b_39_mux_get>:
    800030ae:	1a1047b7          	lui	a5,0x1a104
    800030b2:	13c7a503          	lw	a0,316(a5) # 1a10413c <_tbss_end+0x1a10413c>
    800030b6:	890d                	andi	a0,a0,3
    800030b8:	8082                	ret

00000000800030ba <alsaqr_periph_padframe_periphs_pad_gpio_b_40_cfg_chip2pad_set>:
    800030ba:	1a104737          	lui	a4,0x1a104
    800030be:	14072783          	lw	a5,320(a4) # 1a104140 <_tbss_end+0x1a104140>
    800030c2:	00a03533          	snez	a0,a0
    800030c6:	9bf9                	andi	a5,a5,-2
    800030c8:	8fc9                	or	a5,a5,a0
    800030ca:	14f72023          	sw	a5,320(a4)
    800030ce:	8082                	ret

00000000800030d0 <alsaqr_periph_padframe_periphs_pad_gpio_b_40_cfg_chip2pad_get>:
    800030d0:	1a1047b7          	lui	a5,0x1a104
    800030d4:	1407a503          	lw	a0,320(a5) # 1a104140 <_tbss_end+0x1a104140>
    800030d8:	8905                	andi	a0,a0,1
    800030da:	8082                	ret

00000000800030dc <alsaqr_periph_padframe_periphs_pad_gpio_b_40_cfg_oen_set>:
    800030dc:	1a104737          	lui	a4,0x1a104
    800030e0:	14072783          	lw	a5,320(a4) # 1a104140 <_tbss_end+0x1a104140>
    800030e4:	00a03533          	snez	a0,a0
    800030e8:	0015151b          	slliw	a0,a0,0x1
    800030ec:	9bf5                	andi	a5,a5,-3
    800030ee:	8fc9                	or	a5,a5,a0
    800030f0:	14f72023          	sw	a5,320(a4)
    800030f4:	8082                	ret

00000000800030f6 <alsaqr_periph_padframe_periphs_pad_gpio_b_40_cfg_oen_get>:
    800030f6:	1a1047b7          	lui	a5,0x1a104
    800030fa:	1407a503          	lw	a0,320(a5) # 1a104140 <_tbss_end+0x1a104140>
    800030fe:	0015551b          	srliw	a0,a0,0x1
    80003102:	8905                	andi	a0,a0,1
    80003104:	8082                	ret

0000000080003106 <alsaqr_periph_padframe_periphs_pad_gpio_b_40_cfg_puen_set>:
    80003106:	1a104737          	lui	a4,0x1a104
    8000310a:	14072783          	lw	a5,320(a4) # 1a104140 <_tbss_end+0x1a104140>
    8000310e:	00a03533          	snez	a0,a0
    80003112:	0025151b          	slliw	a0,a0,0x2
    80003116:	9bed                	andi	a5,a5,-5
    80003118:	8fc9                	or	a5,a5,a0
    8000311a:	14f72023          	sw	a5,320(a4)
    8000311e:	8082                	ret

0000000080003120 <alsaqr_periph_padframe_periphs_pad_gpio_b_40_cfg_puen_get>:
    80003120:	1a1047b7          	lui	a5,0x1a104
    80003124:	1407a503          	lw	a0,320(a5) # 1a104140 <_tbss_end+0x1a104140>
    80003128:	0025551b          	srliw	a0,a0,0x2
    8000312c:	8905                	andi	a0,a0,1
    8000312e:	8082                	ret

0000000080003130 <alsaqr_periph_padframe_periphs_pad_gpio_b_40_mux_set>:
    80003130:	890d                	andi	a0,a0,3
    80003132:	1a1047b7          	lui	a5,0x1a104
    80003136:	14a7a223          	sw	a0,324(a5) # 1a104144 <_tbss_end+0x1a104144>
    8000313a:	8082                	ret

000000008000313c <alsaqr_periph_padframe_periphs_pad_gpio_b_40_mux_get>:
    8000313c:	1a1047b7          	lui	a5,0x1a104
    80003140:	1447a503          	lw	a0,324(a5) # 1a104144 <_tbss_end+0x1a104144>
    80003144:	890d                	andi	a0,a0,3
    80003146:	8082                	ret

0000000080003148 <alsaqr_periph_padframe_periphs_pad_gpio_b_41_cfg_chip2pad_set>:
    80003148:	1a104737          	lui	a4,0x1a104
    8000314c:	14872783          	lw	a5,328(a4) # 1a104148 <_tbss_end+0x1a104148>
    80003150:	00a03533          	snez	a0,a0
    80003154:	9bf9                	andi	a5,a5,-2
    80003156:	8fc9                	or	a5,a5,a0
    80003158:	14f72423          	sw	a5,328(a4)
    8000315c:	8082                	ret

000000008000315e <alsaqr_periph_padframe_periphs_pad_gpio_b_41_cfg_chip2pad_get>:
    8000315e:	1a1047b7          	lui	a5,0x1a104
    80003162:	1487a503          	lw	a0,328(a5) # 1a104148 <_tbss_end+0x1a104148>
    80003166:	8905                	andi	a0,a0,1
    80003168:	8082                	ret

000000008000316a <alsaqr_periph_padframe_periphs_pad_gpio_b_41_cfg_oen_set>:
    8000316a:	1a104737          	lui	a4,0x1a104
    8000316e:	14872783          	lw	a5,328(a4) # 1a104148 <_tbss_end+0x1a104148>
    80003172:	00a03533          	snez	a0,a0
    80003176:	0015151b          	slliw	a0,a0,0x1
    8000317a:	9bf5                	andi	a5,a5,-3
    8000317c:	8fc9                	or	a5,a5,a0
    8000317e:	14f72423          	sw	a5,328(a4)
    80003182:	8082                	ret

0000000080003184 <alsaqr_periph_padframe_periphs_pad_gpio_b_41_cfg_oen_get>:
    80003184:	1a1047b7          	lui	a5,0x1a104
    80003188:	1487a503          	lw	a0,328(a5) # 1a104148 <_tbss_end+0x1a104148>
    8000318c:	0015551b          	srliw	a0,a0,0x1
    80003190:	8905                	andi	a0,a0,1
    80003192:	8082                	ret

0000000080003194 <alsaqr_periph_padframe_periphs_pad_gpio_b_41_cfg_puen_set>:
    80003194:	1a104737          	lui	a4,0x1a104
    80003198:	14872783          	lw	a5,328(a4) # 1a104148 <_tbss_end+0x1a104148>
    8000319c:	00a03533          	snez	a0,a0
    800031a0:	0025151b          	slliw	a0,a0,0x2
    800031a4:	9bed                	andi	a5,a5,-5
    800031a6:	8fc9                	or	a5,a5,a0
    800031a8:	14f72423          	sw	a5,328(a4)
    800031ac:	8082                	ret

00000000800031ae <alsaqr_periph_padframe_periphs_pad_gpio_b_41_cfg_puen_get>:
    800031ae:	1a1047b7          	lui	a5,0x1a104
    800031b2:	1487a503          	lw	a0,328(a5) # 1a104148 <_tbss_end+0x1a104148>
    800031b6:	0025551b          	srliw	a0,a0,0x2
    800031ba:	8905                	andi	a0,a0,1
    800031bc:	8082                	ret

00000000800031be <alsaqr_periph_padframe_periphs_pad_gpio_b_41_mux_set>:
    800031be:	890d                	andi	a0,a0,3
    800031c0:	1a1047b7          	lui	a5,0x1a104
    800031c4:	14a7a623          	sw	a0,332(a5) # 1a10414c <_tbss_end+0x1a10414c>
    800031c8:	8082                	ret

00000000800031ca <alsaqr_periph_padframe_periphs_pad_gpio_b_41_mux_get>:
    800031ca:	1a1047b7          	lui	a5,0x1a104
    800031ce:	14c7a503          	lw	a0,332(a5) # 1a10414c <_tbss_end+0x1a10414c>
    800031d2:	890d                	andi	a0,a0,3
    800031d4:	8082                	ret

00000000800031d6 <alsaqr_periph_padframe_periphs_pad_gpio_b_42_cfg_chip2pad_set>:
    800031d6:	1a104737          	lui	a4,0x1a104
    800031da:	15072783          	lw	a5,336(a4) # 1a104150 <_tbss_end+0x1a104150>
    800031de:	00a03533          	snez	a0,a0
    800031e2:	9bf9                	andi	a5,a5,-2
    800031e4:	8fc9                	or	a5,a5,a0
    800031e6:	14f72823          	sw	a5,336(a4)
    800031ea:	8082                	ret

00000000800031ec <alsaqr_periph_padframe_periphs_pad_gpio_b_42_cfg_chip2pad_get>:
    800031ec:	1a1047b7          	lui	a5,0x1a104
    800031f0:	1507a503          	lw	a0,336(a5) # 1a104150 <_tbss_end+0x1a104150>
    800031f4:	8905                	andi	a0,a0,1
    800031f6:	8082                	ret

00000000800031f8 <alsaqr_periph_padframe_periphs_pad_gpio_b_42_cfg_oen_set>:
    800031f8:	1a104737          	lui	a4,0x1a104
    800031fc:	15072783          	lw	a5,336(a4) # 1a104150 <_tbss_end+0x1a104150>
    80003200:	00a03533          	snez	a0,a0
    80003204:	0015151b          	slliw	a0,a0,0x1
    80003208:	9bf5                	andi	a5,a5,-3
    8000320a:	8fc9                	or	a5,a5,a0
    8000320c:	14f72823          	sw	a5,336(a4)
    80003210:	8082                	ret

0000000080003212 <alsaqr_periph_padframe_periphs_pad_gpio_b_42_cfg_oen_get>:
    80003212:	1a1047b7          	lui	a5,0x1a104
    80003216:	1507a503          	lw	a0,336(a5) # 1a104150 <_tbss_end+0x1a104150>
    8000321a:	0015551b          	srliw	a0,a0,0x1
    8000321e:	8905                	andi	a0,a0,1
    80003220:	8082                	ret

0000000080003222 <alsaqr_periph_padframe_periphs_pad_gpio_b_42_cfg_puen_set>:
    80003222:	1a104737          	lui	a4,0x1a104
    80003226:	15072783          	lw	a5,336(a4) # 1a104150 <_tbss_end+0x1a104150>
    8000322a:	00a03533          	snez	a0,a0
    8000322e:	0025151b          	slliw	a0,a0,0x2
    80003232:	9bed                	andi	a5,a5,-5
    80003234:	8fc9                	or	a5,a5,a0
    80003236:	14f72823          	sw	a5,336(a4)
    8000323a:	8082                	ret

000000008000323c <alsaqr_periph_padframe_periphs_pad_gpio_b_42_cfg_puen_get>:
    8000323c:	1a1047b7          	lui	a5,0x1a104
    80003240:	1507a503          	lw	a0,336(a5) # 1a104150 <_tbss_end+0x1a104150>
    80003244:	0025551b          	srliw	a0,a0,0x2
    80003248:	8905                	andi	a0,a0,1
    8000324a:	8082                	ret

000000008000324c <alsaqr_periph_padframe_periphs_pad_gpio_b_42_mux_set>:
    8000324c:	890d                	andi	a0,a0,3
    8000324e:	1a1047b7          	lui	a5,0x1a104
    80003252:	14a7aa23          	sw	a0,340(a5) # 1a104154 <_tbss_end+0x1a104154>
    80003256:	8082                	ret

0000000080003258 <alsaqr_periph_padframe_periphs_pad_gpio_b_42_mux_get>:
    80003258:	1a1047b7          	lui	a5,0x1a104
    8000325c:	1547a503          	lw	a0,340(a5) # 1a104154 <_tbss_end+0x1a104154>
    80003260:	890d                	andi	a0,a0,3
    80003262:	8082                	ret

0000000080003264 <alsaqr_periph_padframe_periphs_pad_gpio_b_43_cfg_chip2pad_set>:
    80003264:	1a104737          	lui	a4,0x1a104
    80003268:	15872783          	lw	a5,344(a4) # 1a104158 <_tbss_end+0x1a104158>
    8000326c:	00a03533          	snez	a0,a0
    80003270:	9bf9                	andi	a5,a5,-2
    80003272:	8fc9                	or	a5,a5,a0
    80003274:	14f72c23          	sw	a5,344(a4)
    80003278:	8082                	ret

000000008000327a <alsaqr_periph_padframe_periphs_pad_gpio_b_43_cfg_chip2pad_get>:
    8000327a:	1a1047b7          	lui	a5,0x1a104
    8000327e:	1587a503          	lw	a0,344(a5) # 1a104158 <_tbss_end+0x1a104158>
    80003282:	8905                	andi	a0,a0,1
    80003284:	8082                	ret

0000000080003286 <alsaqr_periph_padframe_periphs_pad_gpio_b_43_cfg_oen_set>:
    80003286:	1a104737          	lui	a4,0x1a104
    8000328a:	15872783          	lw	a5,344(a4) # 1a104158 <_tbss_end+0x1a104158>
    8000328e:	00a03533          	snez	a0,a0
    80003292:	0015151b          	slliw	a0,a0,0x1
    80003296:	9bf5                	andi	a5,a5,-3
    80003298:	8fc9                	or	a5,a5,a0
    8000329a:	14f72c23          	sw	a5,344(a4)
    8000329e:	8082                	ret

00000000800032a0 <alsaqr_periph_padframe_periphs_pad_gpio_b_43_cfg_oen_get>:
    800032a0:	1a1047b7          	lui	a5,0x1a104
    800032a4:	1587a503          	lw	a0,344(a5) # 1a104158 <_tbss_end+0x1a104158>
    800032a8:	0015551b          	srliw	a0,a0,0x1
    800032ac:	8905                	andi	a0,a0,1
    800032ae:	8082                	ret

00000000800032b0 <alsaqr_periph_padframe_periphs_pad_gpio_b_43_cfg_puen_set>:
    800032b0:	1a104737          	lui	a4,0x1a104
    800032b4:	15872783          	lw	a5,344(a4) # 1a104158 <_tbss_end+0x1a104158>
    800032b8:	00a03533          	snez	a0,a0
    800032bc:	0025151b          	slliw	a0,a0,0x2
    800032c0:	9bed                	andi	a5,a5,-5
    800032c2:	8fc9                	or	a5,a5,a0
    800032c4:	14f72c23          	sw	a5,344(a4)
    800032c8:	8082                	ret

00000000800032ca <alsaqr_periph_padframe_periphs_pad_gpio_b_43_cfg_puen_get>:
    800032ca:	1a1047b7          	lui	a5,0x1a104
    800032ce:	1587a503          	lw	a0,344(a5) # 1a104158 <_tbss_end+0x1a104158>
    800032d2:	0025551b          	srliw	a0,a0,0x2
    800032d6:	8905                	andi	a0,a0,1
    800032d8:	8082                	ret

00000000800032da <alsaqr_periph_padframe_periphs_pad_gpio_b_43_mux_set>:
    800032da:	890d                	andi	a0,a0,3
    800032dc:	1a1047b7          	lui	a5,0x1a104
    800032e0:	14a7ae23          	sw	a0,348(a5) # 1a10415c <_tbss_end+0x1a10415c>
    800032e4:	8082                	ret

00000000800032e6 <alsaqr_periph_padframe_periphs_pad_gpio_b_43_mux_get>:
    800032e6:	1a1047b7          	lui	a5,0x1a104
    800032ea:	15c7a503          	lw	a0,348(a5) # 1a10415c <_tbss_end+0x1a10415c>
    800032ee:	890d                	andi	a0,a0,3
    800032f0:	8082                	ret

00000000800032f2 <alsaqr_periph_padframe_periphs_pad_gpio_b_44_cfg_chip2pad_set>:
    800032f2:	1a104737          	lui	a4,0x1a104
    800032f6:	16072783          	lw	a5,352(a4) # 1a104160 <_tbss_end+0x1a104160>
    800032fa:	00a03533          	snez	a0,a0
    800032fe:	9bf9                	andi	a5,a5,-2
    80003300:	8fc9                	or	a5,a5,a0
    80003302:	16f72023          	sw	a5,352(a4)
    80003306:	8082                	ret

0000000080003308 <alsaqr_periph_padframe_periphs_pad_gpio_b_44_cfg_chip2pad_get>:
    80003308:	1a1047b7          	lui	a5,0x1a104
    8000330c:	1607a503          	lw	a0,352(a5) # 1a104160 <_tbss_end+0x1a104160>
    80003310:	8905                	andi	a0,a0,1
    80003312:	8082                	ret

0000000080003314 <alsaqr_periph_padframe_periphs_pad_gpio_b_44_cfg_oen_set>:
    80003314:	1a104737          	lui	a4,0x1a104
    80003318:	16072783          	lw	a5,352(a4) # 1a104160 <_tbss_end+0x1a104160>
    8000331c:	00a03533          	snez	a0,a0
    80003320:	0015151b          	slliw	a0,a0,0x1
    80003324:	9bf5                	andi	a5,a5,-3
    80003326:	8fc9                	or	a5,a5,a0
    80003328:	16f72023          	sw	a5,352(a4)
    8000332c:	8082                	ret

000000008000332e <alsaqr_periph_padframe_periphs_pad_gpio_b_44_cfg_oen_get>:
    8000332e:	1a1047b7          	lui	a5,0x1a104
    80003332:	1607a503          	lw	a0,352(a5) # 1a104160 <_tbss_end+0x1a104160>
    80003336:	0015551b          	srliw	a0,a0,0x1
    8000333a:	8905                	andi	a0,a0,1
    8000333c:	8082                	ret

000000008000333e <alsaqr_periph_padframe_periphs_pad_gpio_b_44_cfg_puen_set>:
    8000333e:	1a104737          	lui	a4,0x1a104
    80003342:	16072783          	lw	a5,352(a4) # 1a104160 <_tbss_end+0x1a104160>
    80003346:	00a03533          	snez	a0,a0
    8000334a:	0025151b          	slliw	a0,a0,0x2
    8000334e:	9bed                	andi	a5,a5,-5
    80003350:	8fc9                	or	a5,a5,a0
    80003352:	16f72023          	sw	a5,352(a4)
    80003356:	8082                	ret

0000000080003358 <alsaqr_periph_padframe_periphs_pad_gpio_b_44_cfg_puen_get>:
    80003358:	1a1047b7          	lui	a5,0x1a104
    8000335c:	1607a503          	lw	a0,352(a5) # 1a104160 <_tbss_end+0x1a104160>
    80003360:	0025551b          	srliw	a0,a0,0x2
    80003364:	8905                	andi	a0,a0,1
    80003366:	8082                	ret

0000000080003368 <alsaqr_periph_padframe_periphs_pad_gpio_b_44_mux_set>:
    80003368:	890d                	andi	a0,a0,3
    8000336a:	1a1047b7          	lui	a5,0x1a104
    8000336e:	16a7a223          	sw	a0,356(a5) # 1a104164 <_tbss_end+0x1a104164>
    80003372:	8082                	ret

0000000080003374 <alsaqr_periph_padframe_periphs_pad_gpio_b_44_mux_get>:
    80003374:	1a1047b7          	lui	a5,0x1a104
    80003378:	1647a503          	lw	a0,356(a5) # 1a104164 <_tbss_end+0x1a104164>
    8000337c:	890d                	andi	a0,a0,3
    8000337e:	8082                	ret

0000000080003380 <alsaqr_periph_padframe_periphs_pad_gpio_b_45_cfg_chip2pad_set>:
    80003380:	1a104737          	lui	a4,0x1a104
    80003384:	16872783          	lw	a5,360(a4) # 1a104168 <_tbss_end+0x1a104168>
    80003388:	00a03533          	snez	a0,a0
    8000338c:	9bf9                	andi	a5,a5,-2
    8000338e:	8fc9                	or	a5,a5,a0
    80003390:	16f72423          	sw	a5,360(a4)
    80003394:	8082                	ret

0000000080003396 <alsaqr_periph_padframe_periphs_pad_gpio_b_45_cfg_chip2pad_get>:
    80003396:	1a1047b7          	lui	a5,0x1a104
    8000339a:	1687a503          	lw	a0,360(a5) # 1a104168 <_tbss_end+0x1a104168>
    8000339e:	8905                	andi	a0,a0,1
    800033a0:	8082                	ret

00000000800033a2 <alsaqr_periph_padframe_periphs_pad_gpio_b_45_cfg_oen_set>:
    800033a2:	1a104737          	lui	a4,0x1a104
    800033a6:	16872783          	lw	a5,360(a4) # 1a104168 <_tbss_end+0x1a104168>
    800033aa:	00a03533          	snez	a0,a0
    800033ae:	0015151b          	slliw	a0,a0,0x1
    800033b2:	9bf5                	andi	a5,a5,-3
    800033b4:	8fc9                	or	a5,a5,a0
    800033b6:	16f72423          	sw	a5,360(a4)
    800033ba:	8082                	ret

00000000800033bc <alsaqr_periph_padframe_periphs_pad_gpio_b_45_cfg_oen_get>:
    800033bc:	1a1047b7          	lui	a5,0x1a104
    800033c0:	1687a503          	lw	a0,360(a5) # 1a104168 <_tbss_end+0x1a104168>
    800033c4:	0015551b          	srliw	a0,a0,0x1
    800033c8:	8905                	andi	a0,a0,1
    800033ca:	8082                	ret

00000000800033cc <alsaqr_periph_padframe_periphs_pad_gpio_b_45_cfg_puen_set>:
    800033cc:	1a104737          	lui	a4,0x1a104
    800033d0:	16872783          	lw	a5,360(a4) # 1a104168 <_tbss_end+0x1a104168>
    800033d4:	00a03533          	snez	a0,a0
    800033d8:	0025151b          	slliw	a0,a0,0x2
    800033dc:	9bed                	andi	a5,a5,-5
    800033de:	8fc9                	or	a5,a5,a0
    800033e0:	16f72423          	sw	a5,360(a4)
    800033e4:	8082                	ret

00000000800033e6 <alsaqr_periph_padframe_periphs_pad_gpio_b_45_cfg_puen_get>:
    800033e6:	1a1047b7          	lui	a5,0x1a104
    800033ea:	1687a503          	lw	a0,360(a5) # 1a104168 <_tbss_end+0x1a104168>
    800033ee:	0025551b          	srliw	a0,a0,0x2
    800033f2:	8905                	andi	a0,a0,1
    800033f4:	8082                	ret

00000000800033f6 <alsaqr_periph_padframe_periphs_pad_gpio_b_45_mux_set>:
    800033f6:	890d                	andi	a0,a0,3
    800033f8:	1a1047b7          	lui	a5,0x1a104
    800033fc:	16a7a623          	sw	a0,364(a5) # 1a10416c <_tbss_end+0x1a10416c>
    80003400:	8082                	ret

0000000080003402 <alsaqr_periph_padframe_periphs_pad_gpio_b_45_mux_get>:
    80003402:	1a1047b7          	lui	a5,0x1a104
    80003406:	16c7a503          	lw	a0,364(a5) # 1a10416c <_tbss_end+0x1a10416c>
    8000340a:	890d                	andi	a0,a0,3
    8000340c:	8082                	ret

000000008000340e <alsaqr_periph_padframe_periphs_pad_gpio_b_46_cfg_chip2pad_set>:
    8000340e:	1a104737          	lui	a4,0x1a104
    80003412:	17072783          	lw	a5,368(a4) # 1a104170 <_tbss_end+0x1a104170>
    80003416:	00a03533          	snez	a0,a0
    8000341a:	9bf9                	andi	a5,a5,-2
    8000341c:	8fc9                	or	a5,a5,a0
    8000341e:	16f72823          	sw	a5,368(a4)
    80003422:	8082                	ret

0000000080003424 <alsaqr_periph_padframe_periphs_pad_gpio_b_46_cfg_chip2pad_get>:
    80003424:	1a1047b7          	lui	a5,0x1a104
    80003428:	1707a503          	lw	a0,368(a5) # 1a104170 <_tbss_end+0x1a104170>
    8000342c:	8905                	andi	a0,a0,1
    8000342e:	8082                	ret

0000000080003430 <alsaqr_periph_padframe_periphs_pad_gpio_b_46_cfg_oen_set>:
    80003430:	1a104737          	lui	a4,0x1a104
    80003434:	17072783          	lw	a5,368(a4) # 1a104170 <_tbss_end+0x1a104170>
    80003438:	00a03533          	snez	a0,a0
    8000343c:	0015151b          	slliw	a0,a0,0x1
    80003440:	9bf5                	andi	a5,a5,-3
    80003442:	8fc9                	or	a5,a5,a0
    80003444:	16f72823          	sw	a5,368(a4)
    80003448:	8082                	ret

000000008000344a <alsaqr_periph_padframe_periphs_pad_gpio_b_46_cfg_oen_get>:
    8000344a:	1a1047b7          	lui	a5,0x1a104
    8000344e:	1707a503          	lw	a0,368(a5) # 1a104170 <_tbss_end+0x1a104170>
    80003452:	0015551b          	srliw	a0,a0,0x1
    80003456:	8905                	andi	a0,a0,1
    80003458:	8082                	ret

000000008000345a <alsaqr_periph_padframe_periphs_pad_gpio_b_46_cfg_puen_set>:
    8000345a:	1a104737          	lui	a4,0x1a104
    8000345e:	17072783          	lw	a5,368(a4) # 1a104170 <_tbss_end+0x1a104170>
    80003462:	00a03533          	snez	a0,a0
    80003466:	0025151b          	slliw	a0,a0,0x2
    8000346a:	9bed                	andi	a5,a5,-5
    8000346c:	8fc9                	or	a5,a5,a0
    8000346e:	16f72823          	sw	a5,368(a4)
    80003472:	8082                	ret

0000000080003474 <alsaqr_periph_padframe_periphs_pad_gpio_b_46_cfg_puen_get>:
    80003474:	1a1047b7          	lui	a5,0x1a104
    80003478:	1707a503          	lw	a0,368(a5) # 1a104170 <_tbss_end+0x1a104170>
    8000347c:	0025551b          	srliw	a0,a0,0x2
    80003480:	8905                	andi	a0,a0,1
    80003482:	8082                	ret

0000000080003484 <alsaqr_periph_padframe_periphs_pad_gpio_b_46_mux_set>:
    80003484:	890d                	andi	a0,a0,3
    80003486:	1a1047b7          	lui	a5,0x1a104
    8000348a:	16a7aa23          	sw	a0,372(a5) # 1a104174 <_tbss_end+0x1a104174>
    8000348e:	8082                	ret

0000000080003490 <alsaqr_periph_padframe_periphs_pad_gpio_b_46_mux_get>:
    80003490:	1a1047b7          	lui	a5,0x1a104
    80003494:	1747a503          	lw	a0,372(a5) # 1a104174 <_tbss_end+0x1a104174>
    80003498:	890d                	andi	a0,a0,3
    8000349a:	8082                	ret

000000008000349c <alsaqr_periph_padframe_periphs_pad_gpio_b_47_cfg_chip2pad_set>:
    8000349c:	1a104737          	lui	a4,0x1a104
    800034a0:	17872783          	lw	a5,376(a4) # 1a104178 <_tbss_end+0x1a104178>
    800034a4:	00a03533          	snez	a0,a0
    800034a8:	9bf9                	andi	a5,a5,-2
    800034aa:	8fc9                	or	a5,a5,a0
    800034ac:	16f72c23          	sw	a5,376(a4)
    800034b0:	8082                	ret

00000000800034b2 <alsaqr_periph_padframe_periphs_pad_gpio_b_47_cfg_chip2pad_get>:
    800034b2:	1a1047b7          	lui	a5,0x1a104
    800034b6:	1787a503          	lw	a0,376(a5) # 1a104178 <_tbss_end+0x1a104178>
    800034ba:	8905                	andi	a0,a0,1
    800034bc:	8082                	ret

00000000800034be <alsaqr_periph_padframe_periphs_pad_gpio_b_47_cfg_oen_set>:
    800034be:	1a104737          	lui	a4,0x1a104
    800034c2:	17872783          	lw	a5,376(a4) # 1a104178 <_tbss_end+0x1a104178>
    800034c6:	00a03533          	snez	a0,a0
    800034ca:	0015151b          	slliw	a0,a0,0x1
    800034ce:	9bf5                	andi	a5,a5,-3
    800034d0:	8fc9                	or	a5,a5,a0
    800034d2:	16f72c23          	sw	a5,376(a4)
    800034d6:	8082                	ret

00000000800034d8 <alsaqr_periph_padframe_periphs_pad_gpio_b_47_cfg_oen_get>:
    800034d8:	1a1047b7          	lui	a5,0x1a104
    800034dc:	1787a503          	lw	a0,376(a5) # 1a104178 <_tbss_end+0x1a104178>
    800034e0:	0015551b          	srliw	a0,a0,0x1
    800034e4:	8905                	andi	a0,a0,1
    800034e6:	8082                	ret

00000000800034e8 <alsaqr_periph_padframe_periphs_pad_gpio_b_47_cfg_puen_set>:
    800034e8:	1a104737          	lui	a4,0x1a104
    800034ec:	17872783          	lw	a5,376(a4) # 1a104178 <_tbss_end+0x1a104178>
    800034f0:	00a03533          	snez	a0,a0
    800034f4:	0025151b          	slliw	a0,a0,0x2
    800034f8:	9bed                	andi	a5,a5,-5
    800034fa:	8fc9                	or	a5,a5,a0
    800034fc:	16f72c23          	sw	a5,376(a4)
    80003500:	8082                	ret

0000000080003502 <alsaqr_periph_padframe_periphs_pad_gpio_b_47_cfg_puen_get>:
    80003502:	1a1047b7          	lui	a5,0x1a104
    80003506:	1787a503          	lw	a0,376(a5) # 1a104178 <_tbss_end+0x1a104178>
    8000350a:	0025551b          	srliw	a0,a0,0x2
    8000350e:	8905                	andi	a0,a0,1
    80003510:	8082                	ret

0000000080003512 <alsaqr_periph_padframe_periphs_pad_gpio_b_47_mux_set>:
    80003512:	890d                	andi	a0,a0,3
    80003514:	1a1047b7          	lui	a5,0x1a104
    80003518:	16a7ae23          	sw	a0,380(a5) # 1a10417c <_tbss_end+0x1a10417c>
    8000351c:	8082                	ret

000000008000351e <alsaqr_periph_padframe_periphs_pad_gpio_b_47_mux_get>:
    8000351e:	1a1047b7          	lui	a5,0x1a104
    80003522:	17c7a503          	lw	a0,380(a5) # 1a10417c <_tbss_end+0x1a10417c>
    80003526:	890d                	andi	a0,a0,3
    80003528:	8082                	ret

000000008000352a <alsaqr_periph_padframe_periphs_pad_gpio_b_48_cfg_chip2pad_set>:
    8000352a:	1a104737          	lui	a4,0x1a104
    8000352e:	18072783          	lw	a5,384(a4) # 1a104180 <_tbss_end+0x1a104180>
    80003532:	00a03533          	snez	a0,a0
    80003536:	9bf9                	andi	a5,a5,-2
    80003538:	8fc9                	or	a5,a5,a0
    8000353a:	18f72023          	sw	a5,384(a4)
    8000353e:	8082                	ret

0000000080003540 <alsaqr_periph_padframe_periphs_pad_gpio_b_48_cfg_chip2pad_get>:
    80003540:	1a1047b7          	lui	a5,0x1a104
    80003544:	1807a503          	lw	a0,384(a5) # 1a104180 <_tbss_end+0x1a104180>
    80003548:	8905                	andi	a0,a0,1
    8000354a:	8082                	ret

000000008000354c <alsaqr_periph_padframe_periphs_pad_gpio_b_48_cfg_oen_set>:
    8000354c:	1a104737          	lui	a4,0x1a104
    80003550:	18072783          	lw	a5,384(a4) # 1a104180 <_tbss_end+0x1a104180>
    80003554:	00a03533          	snez	a0,a0
    80003558:	0015151b          	slliw	a0,a0,0x1
    8000355c:	9bf5                	andi	a5,a5,-3
    8000355e:	8fc9                	or	a5,a5,a0
    80003560:	18f72023          	sw	a5,384(a4)
    80003564:	8082                	ret

0000000080003566 <alsaqr_periph_padframe_periphs_pad_gpio_b_48_cfg_oen_get>:
    80003566:	1a1047b7          	lui	a5,0x1a104
    8000356a:	1807a503          	lw	a0,384(a5) # 1a104180 <_tbss_end+0x1a104180>
    8000356e:	0015551b          	srliw	a0,a0,0x1
    80003572:	8905                	andi	a0,a0,1
    80003574:	8082                	ret

0000000080003576 <alsaqr_periph_padframe_periphs_pad_gpio_b_48_cfg_puen_set>:
    80003576:	1a104737          	lui	a4,0x1a104
    8000357a:	18072783          	lw	a5,384(a4) # 1a104180 <_tbss_end+0x1a104180>
    8000357e:	00a03533          	snez	a0,a0
    80003582:	0025151b          	slliw	a0,a0,0x2
    80003586:	9bed                	andi	a5,a5,-5
    80003588:	8fc9                	or	a5,a5,a0
    8000358a:	18f72023          	sw	a5,384(a4)
    8000358e:	8082                	ret

0000000080003590 <alsaqr_periph_padframe_periphs_pad_gpio_b_48_cfg_puen_get>:
    80003590:	1a1047b7          	lui	a5,0x1a104
    80003594:	1807a503          	lw	a0,384(a5) # 1a104180 <_tbss_end+0x1a104180>
    80003598:	0025551b          	srliw	a0,a0,0x2
    8000359c:	8905                	andi	a0,a0,1
    8000359e:	8082                	ret

00000000800035a0 <alsaqr_periph_padframe_periphs_pad_gpio_b_48_mux_set>:
    800035a0:	890d                	andi	a0,a0,3
    800035a2:	1a1047b7          	lui	a5,0x1a104
    800035a6:	18a7a223          	sw	a0,388(a5) # 1a104184 <_tbss_end+0x1a104184>
    800035aa:	8082                	ret

00000000800035ac <alsaqr_periph_padframe_periphs_pad_gpio_b_48_mux_get>:
    800035ac:	1a1047b7          	lui	a5,0x1a104
    800035b0:	1847a503          	lw	a0,388(a5) # 1a104184 <_tbss_end+0x1a104184>
    800035b4:	890d                	andi	a0,a0,3
    800035b6:	8082                	ret

00000000800035b8 <alsaqr_periph_padframe_periphs_pad_gpio_b_49_cfg_chip2pad_set>:
    800035b8:	1a104737          	lui	a4,0x1a104
    800035bc:	18872783          	lw	a5,392(a4) # 1a104188 <_tbss_end+0x1a104188>
    800035c0:	00a03533          	snez	a0,a0
    800035c4:	9bf9                	andi	a5,a5,-2
    800035c6:	8fc9                	or	a5,a5,a0
    800035c8:	18f72423          	sw	a5,392(a4)
    800035cc:	8082                	ret

00000000800035ce <alsaqr_periph_padframe_periphs_pad_gpio_b_49_cfg_chip2pad_get>:
    800035ce:	1a1047b7          	lui	a5,0x1a104
    800035d2:	1887a503          	lw	a0,392(a5) # 1a104188 <_tbss_end+0x1a104188>
    800035d6:	8905                	andi	a0,a0,1
    800035d8:	8082                	ret

00000000800035da <alsaqr_periph_padframe_periphs_pad_gpio_b_49_cfg_oen_set>:
    800035da:	1a104737          	lui	a4,0x1a104
    800035de:	18872783          	lw	a5,392(a4) # 1a104188 <_tbss_end+0x1a104188>
    800035e2:	00a03533          	snez	a0,a0
    800035e6:	0015151b          	slliw	a0,a0,0x1
    800035ea:	9bf5                	andi	a5,a5,-3
    800035ec:	8fc9                	or	a5,a5,a0
    800035ee:	18f72423          	sw	a5,392(a4)
    800035f2:	8082                	ret

00000000800035f4 <alsaqr_periph_padframe_periphs_pad_gpio_b_49_cfg_oen_get>:
    800035f4:	1a1047b7          	lui	a5,0x1a104
    800035f8:	1887a503          	lw	a0,392(a5) # 1a104188 <_tbss_end+0x1a104188>
    800035fc:	0015551b          	srliw	a0,a0,0x1
    80003600:	8905                	andi	a0,a0,1
    80003602:	8082                	ret

0000000080003604 <alsaqr_periph_padframe_periphs_pad_gpio_b_49_cfg_puen_set>:
    80003604:	1a104737          	lui	a4,0x1a104
    80003608:	18872783          	lw	a5,392(a4) # 1a104188 <_tbss_end+0x1a104188>
    8000360c:	00a03533          	snez	a0,a0
    80003610:	0025151b          	slliw	a0,a0,0x2
    80003614:	9bed                	andi	a5,a5,-5
    80003616:	8fc9                	or	a5,a5,a0
    80003618:	18f72423          	sw	a5,392(a4)
    8000361c:	8082                	ret

000000008000361e <alsaqr_periph_padframe_periphs_pad_gpio_b_49_cfg_puen_get>:
    8000361e:	1a1047b7          	lui	a5,0x1a104
    80003622:	1887a503          	lw	a0,392(a5) # 1a104188 <_tbss_end+0x1a104188>
    80003626:	0025551b          	srliw	a0,a0,0x2
    8000362a:	8905                	andi	a0,a0,1
    8000362c:	8082                	ret

000000008000362e <alsaqr_periph_padframe_periphs_pad_gpio_b_49_mux_set>:
    8000362e:	890d                	andi	a0,a0,3
    80003630:	1a1047b7          	lui	a5,0x1a104
    80003634:	18a7a623          	sw	a0,396(a5) # 1a10418c <_tbss_end+0x1a10418c>
    80003638:	8082                	ret

000000008000363a <alsaqr_periph_padframe_periphs_pad_gpio_b_49_mux_get>:
    8000363a:	1a1047b7          	lui	a5,0x1a104
    8000363e:	18c7a503          	lw	a0,396(a5) # 1a10418c <_tbss_end+0x1a10418c>
    80003642:	890d                	andi	a0,a0,3
    80003644:	8082                	ret

0000000080003646 <alsaqr_periph_padframe_periphs_pad_gpio_b_50_cfg_chip2pad_set>:
    80003646:	1a104737          	lui	a4,0x1a104
    8000364a:	19072783          	lw	a5,400(a4) # 1a104190 <_tbss_end+0x1a104190>
    8000364e:	00a03533          	snez	a0,a0
    80003652:	9bf9                	andi	a5,a5,-2
    80003654:	8fc9                	or	a5,a5,a0
    80003656:	18f72823          	sw	a5,400(a4)
    8000365a:	8082                	ret

000000008000365c <alsaqr_periph_padframe_periphs_pad_gpio_b_50_cfg_chip2pad_get>:
    8000365c:	1a1047b7          	lui	a5,0x1a104
    80003660:	1907a503          	lw	a0,400(a5) # 1a104190 <_tbss_end+0x1a104190>
    80003664:	8905                	andi	a0,a0,1
    80003666:	8082                	ret

0000000080003668 <alsaqr_periph_padframe_periphs_pad_gpio_b_50_cfg_oen_set>:
    80003668:	1a104737          	lui	a4,0x1a104
    8000366c:	19072783          	lw	a5,400(a4) # 1a104190 <_tbss_end+0x1a104190>
    80003670:	00a03533          	snez	a0,a0
    80003674:	0015151b          	slliw	a0,a0,0x1
    80003678:	9bf5                	andi	a5,a5,-3
    8000367a:	8fc9                	or	a5,a5,a0
    8000367c:	18f72823          	sw	a5,400(a4)
    80003680:	8082                	ret

0000000080003682 <alsaqr_periph_padframe_periphs_pad_gpio_b_50_cfg_oen_get>:
    80003682:	1a1047b7          	lui	a5,0x1a104
    80003686:	1907a503          	lw	a0,400(a5) # 1a104190 <_tbss_end+0x1a104190>
    8000368a:	0015551b          	srliw	a0,a0,0x1
    8000368e:	8905                	andi	a0,a0,1
    80003690:	8082                	ret

0000000080003692 <alsaqr_periph_padframe_periphs_pad_gpio_b_50_cfg_puen_set>:
    80003692:	1a104737          	lui	a4,0x1a104
    80003696:	19072783          	lw	a5,400(a4) # 1a104190 <_tbss_end+0x1a104190>
    8000369a:	00a03533          	snez	a0,a0
    8000369e:	0025151b          	slliw	a0,a0,0x2
    800036a2:	9bed                	andi	a5,a5,-5
    800036a4:	8fc9                	or	a5,a5,a0
    800036a6:	18f72823          	sw	a5,400(a4)
    800036aa:	8082                	ret

00000000800036ac <alsaqr_periph_padframe_periphs_pad_gpio_b_50_cfg_puen_get>:
    800036ac:	1a1047b7          	lui	a5,0x1a104
    800036b0:	1907a503          	lw	a0,400(a5) # 1a104190 <_tbss_end+0x1a104190>
    800036b4:	0025551b          	srliw	a0,a0,0x2
    800036b8:	8905                	andi	a0,a0,1
    800036ba:	8082                	ret

00000000800036bc <alsaqr_periph_padframe_periphs_pad_gpio_b_50_mux_set>:
    800036bc:	890d                	andi	a0,a0,3
    800036be:	1a1047b7          	lui	a5,0x1a104
    800036c2:	18a7aa23          	sw	a0,404(a5) # 1a104194 <_tbss_end+0x1a104194>
    800036c6:	8082                	ret

00000000800036c8 <alsaqr_periph_padframe_periphs_pad_gpio_b_50_mux_get>:
    800036c8:	1a1047b7          	lui	a5,0x1a104
    800036cc:	1947a503          	lw	a0,404(a5) # 1a104194 <_tbss_end+0x1a104194>
    800036d0:	890d                	andi	a0,a0,3
    800036d2:	8082                	ret

00000000800036d4 <alsaqr_periph_padframe_periphs_pad_gpio_b_51_cfg_chip2pad_set>:
    800036d4:	1a104737          	lui	a4,0x1a104
    800036d8:	19872783          	lw	a5,408(a4) # 1a104198 <_tbss_end+0x1a104198>
    800036dc:	00a03533          	snez	a0,a0
    800036e0:	9bf9                	andi	a5,a5,-2
    800036e2:	8fc9                	or	a5,a5,a0
    800036e4:	18f72c23          	sw	a5,408(a4)
    800036e8:	8082                	ret

00000000800036ea <alsaqr_periph_padframe_periphs_pad_gpio_b_51_cfg_chip2pad_get>:
    800036ea:	1a1047b7          	lui	a5,0x1a104
    800036ee:	1987a503          	lw	a0,408(a5) # 1a104198 <_tbss_end+0x1a104198>
    800036f2:	8905                	andi	a0,a0,1
    800036f4:	8082                	ret

00000000800036f6 <alsaqr_periph_padframe_periphs_pad_gpio_b_51_cfg_oen_set>:
    800036f6:	1a104737          	lui	a4,0x1a104
    800036fa:	19872783          	lw	a5,408(a4) # 1a104198 <_tbss_end+0x1a104198>
    800036fe:	00a03533          	snez	a0,a0
    80003702:	0015151b          	slliw	a0,a0,0x1
    80003706:	9bf5                	andi	a5,a5,-3
    80003708:	8fc9                	or	a5,a5,a0
    8000370a:	18f72c23          	sw	a5,408(a4)
    8000370e:	8082                	ret

0000000080003710 <alsaqr_periph_padframe_periphs_pad_gpio_b_51_cfg_oen_get>:
    80003710:	1a1047b7          	lui	a5,0x1a104
    80003714:	1987a503          	lw	a0,408(a5) # 1a104198 <_tbss_end+0x1a104198>
    80003718:	0015551b          	srliw	a0,a0,0x1
    8000371c:	8905                	andi	a0,a0,1
    8000371e:	8082                	ret

0000000080003720 <alsaqr_periph_padframe_periphs_pad_gpio_b_51_cfg_puen_set>:
    80003720:	1a104737          	lui	a4,0x1a104
    80003724:	19872783          	lw	a5,408(a4) # 1a104198 <_tbss_end+0x1a104198>
    80003728:	00a03533          	snez	a0,a0
    8000372c:	0025151b          	slliw	a0,a0,0x2
    80003730:	9bed                	andi	a5,a5,-5
    80003732:	8fc9                	or	a5,a5,a0
    80003734:	18f72c23          	sw	a5,408(a4)
    80003738:	8082                	ret

000000008000373a <alsaqr_periph_padframe_periphs_pad_gpio_b_51_cfg_puen_get>:
    8000373a:	1a1047b7          	lui	a5,0x1a104
    8000373e:	1987a503          	lw	a0,408(a5) # 1a104198 <_tbss_end+0x1a104198>
    80003742:	0025551b          	srliw	a0,a0,0x2
    80003746:	8905                	andi	a0,a0,1
    80003748:	8082                	ret

000000008000374a <alsaqr_periph_padframe_periphs_pad_gpio_b_51_mux_set>:
    8000374a:	890d                	andi	a0,a0,3
    8000374c:	1a1047b7          	lui	a5,0x1a104
    80003750:	18a7ae23          	sw	a0,412(a5) # 1a10419c <_tbss_end+0x1a10419c>
    80003754:	8082                	ret

0000000080003756 <alsaqr_periph_padframe_periphs_pad_gpio_b_51_mux_get>:
    80003756:	1a1047b7          	lui	a5,0x1a104
    8000375a:	19c7a503          	lw	a0,412(a5) # 1a10419c <_tbss_end+0x1a10419c>
    8000375e:	890d                	andi	a0,a0,3
    80003760:	8082                	ret

0000000080003762 <alsaqr_periph_padframe_periphs_pad_gpio_b_52_cfg_chip2pad_set>:
    80003762:	1a104737          	lui	a4,0x1a104
    80003766:	1a072783          	lw	a5,416(a4) # 1a1041a0 <_tbss_end+0x1a1041a0>
    8000376a:	00a03533          	snez	a0,a0
    8000376e:	9bf9                	andi	a5,a5,-2
    80003770:	8fc9                	or	a5,a5,a0
    80003772:	1af72023          	sw	a5,416(a4)
    80003776:	8082                	ret

0000000080003778 <alsaqr_periph_padframe_periphs_pad_gpio_b_52_cfg_chip2pad_get>:
    80003778:	1a1047b7          	lui	a5,0x1a104
    8000377c:	1a07a503          	lw	a0,416(a5) # 1a1041a0 <_tbss_end+0x1a1041a0>
    80003780:	8905                	andi	a0,a0,1
    80003782:	8082                	ret

0000000080003784 <alsaqr_periph_padframe_periphs_pad_gpio_b_52_cfg_oen_set>:
    80003784:	1a104737          	lui	a4,0x1a104
    80003788:	1a072783          	lw	a5,416(a4) # 1a1041a0 <_tbss_end+0x1a1041a0>
    8000378c:	00a03533          	snez	a0,a0
    80003790:	0015151b          	slliw	a0,a0,0x1
    80003794:	9bf5                	andi	a5,a5,-3
    80003796:	8fc9                	or	a5,a5,a0
    80003798:	1af72023          	sw	a5,416(a4)
    8000379c:	8082                	ret

000000008000379e <alsaqr_periph_padframe_periphs_pad_gpio_b_52_cfg_oen_get>:
    8000379e:	1a1047b7          	lui	a5,0x1a104
    800037a2:	1a07a503          	lw	a0,416(a5) # 1a1041a0 <_tbss_end+0x1a1041a0>
    800037a6:	0015551b          	srliw	a0,a0,0x1
    800037aa:	8905                	andi	a0,a0,1
    800037ac:	8082                	ret

00000000800037ae <alsaqr_periph_padframe_periphs_pad_gpio_b_52_cfg_puen_set>:
    800037ae:	1a104737          	lui	a4,0x1a104
    800037b2:	1a072783          	lw	a5,416(a4) # 1a1041a0 <_tbss_end+0x1a1041a0>
    800037b6:	00a03533          	snez	a0,a0
    800037ba:	0025151b          	slliw	a0,a0,0x2
    800037be:	9bed                	andi	a5,a5,-5
    800037c0:	8fc9                	or	a5,a5,a0
    800037c2:	1af72023          	sw	a5,416(a4)
    800037c6:	8082                	ret

00000000800037c8 <alsaqr_periph_padframe_periphs_pad_gpio_b_52_cfg_puen_get>:
    800037c8:	1a1047b7          	lui	a5,0x1a104
    800037cc:	1a07a503          	lw	a0,416(a5) # 1a1041a0 <_tbss_end+0x1a1041a0>
    800037d0:	0025551b          	srliw	a0,a0,0x2
    800037d4:	8905                	andi	a0,a0,1
    800037d6:	8082                	ret

00000000800037d8 <alsaqr_periph_padframe_periphs_pad_gpio_b_52_mux_set>:
    800037d8:	890d                	andi	a0,a0,3
    800037da:	1a1047b7          	lui	a5,0x1a104
    800037de:	1aa7a223          	sw	a0,420(a5) # 1a1041a4 <_tbss_end+0x1a1041a4>
    800037e2:	8082                	ret

00000000800037e4 <alsaqr_periph_padframe_periphs_pad_gpio_b_52_mux_get>:
    800037e4:	1a1047b7          	lui	a5,0x1a104
    800037e8:	1a47a503          	lw	a0,420(a5) # 1a1041a4 <_tbss_end+0x1a1041a4>
    800037ec:	890d                	andi	a0,a0,3
    800037ee:	8082                	ret

00000000800037f0 <alsaqr_periph_padframe_periphs_pad_gpio_b_53_cfg_chip2pad_set>:
    800037f0:	1a104737          	lui	a4,0x1a104
    800037f4:	1a872783          	lw	a5,424(a4) # 1a1041a8 <_tbss_end+0x1a1041a8>
    800037f8:	00a03533          	snez	a0,a0
    800037fc:	9bf9                	andi	a5,a5,-2
    800037fe:	8fc9                	or	a5,a5,a0
    80003800:	1af72423          	sw	a5,424(a4)
    80003804:	8082                	ret

0000000080003806 <alsaqr_periph_padframe_periphs_pad_gpio_b_53_cfg_chip2pad_get>:
    80003806:	1a1047b7          	lui	a5,0x1a104
    8000380a:	1a87a503          	lw	a0,424(a5) # 1a1041a8 <_tbss_end+0x1a1041a8>
    8000380e:	8905                	andi	a0,a0,1
    80003810:	8082                	ret

0000000080003812 <alsaqr_periph_padframe_periphs_pad_gpio_b_53_cfg_oen_set>:
    80003812:	1a104737          	lui	a4,0x1a104
    80003816:	1a872783          	lw	a5,424(a4) # 1a1041a8 <_tbss_end+0x1a1041a8>
    8000381a:	00a03533          	snez	a0,a0
    8000381e:	0015151b          	slliw	a0,a0,0x1
    80003822:	9bf5                	andi	a5,a5,-3
    80003824:	8fc9                	or	a5,a5,a0
    80003826:	1af72423          	sw	a5,424(a4)
    8000382a:	8082                	ret

000000008000382c <alsaqr_periph_padframe_periphs_pad_gpio_b_53_cfg_oen_get>:
    8000382c:	1a1047b7          	lui	a5,0x1a104
    80003830:	1a87a503          	lw	a0,424(a5) # 1a1041a8 <_tbss_end+0x1a1041a8>
    80003834:	0015551b          	srliw	a0,a0,0x1
    80003838:	8905                	andi	a0,a0,1
    8000383a:	8082                	ret

000000008000383c <alsaqr_periph_padframe_periphs_pad_gpio_b_53_cfg_puen_set>:
    8000383c:	1a104737          	lui	a4,0x1a104
    80003840:	1a872783          	lw	a5,424(a4) # 1a1041a8 <_tbss_end+0x1a1041a8>
    80003844:	00a03533          	snez	a0,a0
    80003848:	0025151b          	slliw	a0,a0,0x2
    8000384c:	9bed                	andi	a5,a5,-5
    8000384e:	8fc9                	or	a5,a5,a0
    80003850:	1af72423          	sw	a5,424(a4)
    80003854:	8082                	ret

0000000080003856 <alsaqr_periph_padframe_periphs_pad_gpio_b_53_cfg_puen_get>:
    80003856:	1a1047b7          	lui	a5,0x1a104
    8000385a:	1a87a503          	lw	a0,424(a5) # 1a1041a8 <_tbss_end+0x1a1041a8>
    8000385e:	0025551b          	srliw	a0,a0,0x2
    80003862:	8905                	andi	a0,a0,1
    80003864:	8082                	ret

0000000080003866 <alsaqr_periph_padframe_periphs_pad_gpio_b_53_mux_set>:
    80003866:	890d                	andi	a0,a0,3
    80003868:	1a1047b7          	lui	a5,0x1a104
    8000386c:	1aa7a623          	sw	a0,428(a5) # 1a1041ac <_tbss_end+0x1a1041ac>
    80003870:	8082                	ret

0000000080003872 <alsaqr_periph_padframe_periphs_pad_gpio_b_53_mux_get>:
    80003872:	1a1047b7          	lui	a5,0x1a104
    80003876:	1ac7a503          	lw	a0,428(a5) # 1a1041ac <_tbss_end+0x1a1041ac>
    8000387a:	890d                	andi	a0,a0,3
    8000387c:	8082                	ret

000000008000387e <alsaqr_periph_padframe_periphs_pad_gpio_b_54_cfg_chip2pad_set>:
    8000387e:	1a104737          	lui	a4,0x1a104
    80003882:	1b072783          	lw	a5,432(a4) # 1a1041b0 <_tbss_end+0x1a1041b0>
    80003886:	00a03533          	snez	a0,a0
    8000388a:	9bf9                	andi	a5,a5,-2
    8000388c:	8fc9                	or	a5,a5,a0
    8000388e:	1af72823          	sw	a5,432(a4)
    80003892:	8082                	ret

0000000080003894 <alsaqr_periph_padframe_periphs_pad_gpio_b_54_cfg_chip2pad_get>:
    80003894:	1a1047b7          	lui	a5,0x1a104
    80003898:	1b07a503          	lw	a0,432(a5) # 1a1041b0 <_tbss_end+0x1a1041b0>
    8000389c:	8905                	andi	a0,a0,1
    8000389e:	8082                	ret

00000000800038a0 <alsaqr_periph_padframe_periphs_pad_gpio_b_54_cfg_oen_set>:
    800038a0:	1a104737          	lui	a4,0x1a104
    800038a4:	1b072783          	lw	a5,432(a4) # 1a1041b0 <_tbss_end+0x1a1041b0>
    800038a8:	00a03533          	snez	a0,a0
    800038ac:	0015151b          	slliw	a0,a0,0x1
    800038b0:	9bf5                	andi	a5,a5,-3
    800038b2:	8fc9                	or	a5,a5,a0
    800038b4:	1af72823          	sw	a5,432(a4)
    800038b8:	8082                	ret

00000000800038ba <alsaqr_periph_padframe_periphs_pad_gpio_b_54_cfg_oen_get>:
    800038ba:	1a1047b7          	lui	a5,0x1a104
    800038be:	1b07a503          	lw	a0,432(a5) # 1a1041b0 <_tbss_end+0x1a1041b0>
    800038c2:	0015551b          	srliw	a0,a0,0x1
    800038c6:	8905                	andi	a0,a0,1
    800038c8:	8082                	ret

00000000800038ca <alsaqr_periph_padframe_periphs_pad_gpio_b_54_cfg_puen_set>:
    800038ca:	1a104737          	lui	a4,0x1a104
    800038ce:	1b072783          	lw	a5,432(a4) # 1a1041b0 <_tbss_end+0x1a1041b0>
    800038d2:	00a03533          	snez	a0,a0
    800038d6:	0025151b          	slliw	a0,a0,0x2
    800038da:	9bed                	andi	a5,a5,-5
    800038dc:	8fc9                	or	a5,a5,a0
    800038de:	1af72823          	sw	a5,432(a4)
    800038e2:	8082                	ret

00000000800038e4 <alsaqr_periph_padframe_periphs_pad_gpio_b_54_cfg_puen_get>:
    800038e4:	1a1047b7          	lui	a5,0x1a104
    800038e8:	1b07a503          	lw	a0,432(a5) # 1a1041b0 <_tbss_end+0x1a1041b0>
    800038ec:	0025551b          	srliw	a0,a0,0x2
    800038f0:	8905                	andi	a0,a0,1
    800038f2:	8082                	ret

00000000800038f4 <alsaqr_periph_padframe_periphs_pad_gpio_b_54_mux_set>:
    800038f4:	890d                	andi	a0,a0,3
    800038f6:	1a1047b7          	lui	a5,0x1a104
    800038fa:	1aa7aa23          	sw	a0,436(a5) # 1a1041b4 <_tbss_end+0x1a1041b4>
    800038fe:	8082                	ret

0000000080003900 <alsaqr_periph_padframe_periphs_pad_gpio_b_54_mux_get>:
    80003900:	1a1047b7          	lui	a5,0x1a104
    80003904:	1b47a503          	lw	a0,436(a5) # 1a1041b4 <_tbss_end+0x1a1041b4>
    80003908:	890d                	andi	a0,a0,3
    8000390a:	8082                	ret

000000008000390c <alsaqr_periph_padframe_periphs_pad_gpio_b_55_cfg_chip2pad_set>:
    8000390c:	1a104737          	lui	a4,0x1a104
    80003910:	1b872783          	lw	a5,440(a4) # 1a1041b8 <_tbss_end+0x1a1041b8>
    80003914:	00a03533          	snez	a0,a0
    80003918:	9bf9                	andi	a5,a5,-2
    8000391a:	8fc9                	or	a5,a5,a0
    8000391c:	1af72c23          	sw	a5,440(a4)
    80003920:	8082                	ret

0000000080003922 <alsaqr_periph_padframe_periphs_pad_gpio_b_55_cfg_chip2pad_get>:
    80003922:	1a1047b7          	lui	a5,0x1a104
    80003926:	1b87a503          	lw	a0,440(a5) # 1a1041b8 <_tbss_end+0x1a1041b8>
    8000392a:	8905                	andi	a0,a0,1
    8000392c:	8082                	ret

000000008000392e <alsaqr_periph_padframe_periphs_pad_gpio_b_55_cfg_oen_set>:
    8000392e:	1a104737          	lui	a4,0x1a104
    80003932:	1b872783          	lw	a5,440(a4) # 1a1041b8 <_tbss_end+0x1a1041b8>
    80003936:	00a03533          	snez	a0,a0
    8000393a:	0015151b          	slliw	a0,a0,0x1
    8000393e:	9bf5                	andi	a5,a5,-3
    80003940:	8fc9                	or	a5,a5,a0
    80003942:	1af72c23          	sw	a5,440(a4)
    80003946:	8082                	ret

0000000080003948 <alsaqr_periph_padframe_periphs_pad_gpio_b_55_cfg_oen_get>:
    80003948:	1a1047b7          	lui	a5,0x1a104
    8000394c:	1b87a503          	lw	a0,440(a5) # 1a1041b8 <_tbss_end+0x1a1041b8>
    80003950:	0015551b          	srliw	a0,a0,0x1
    80003954:	8905                	andi	a0,a0,1
    80003956:	8082                	ret

0000000080003958 <alsaqr_periph_padframe_periphs_pad_gpio_b_55_cfg_puen_set>:
    80003958:	1a104737          	lui	a4,0x1a104
    8000395c:	1b872783          	lw	a5,440(a4) # 1a1041b8 <_tbss_end+0x1a1041b8>
    80003960:	00a03533          	snez	a0,a0
    80003964:	0025151b          	slliw	a0,a0,0x2
    80003968:	9bed                	andi	a5,a5,-5
    8000396a:	8fc9                	or	a5,a5,a0
    8000396c:	1af72c23          	sw	a5,440(a4)
    80003970:	8082                	ret

0000000080003972 <alsaqr_periph_padframe_periphs_pad_gpio_b_55_cfg_puen_get>:
    80003972:	1a1047b7          	lui	a5,0x1a104
    80003976:	1b87a503          	lw	a0,440(a5) # 1a1041b8 <_tbss_end+0x1a1041b8>
    8000397a:	0025551b          	srliw	a0,a0,0x2
    8000397e:	8905                	andi	a0,a0,1
    80003980:	8082                	ret

0000000080003982 <alsaqr_periph_padframe_periphs_pad_gpio_b_55_mux_set>:
    80003982:	890d                	andi	a0,a0,3
    80003984:	1a1047b7          	lui	a5,0x1a104
    80003988:	1aa7ae23          	sw	a0,444(a5) # 1a1041bc <_tbss_end+0x1a1041bc>
    8000398c:	8082                	ret

000000008000398e <alsaqr_periph_padframe_periphs_pad_gpio_b_55_mux_get>:
    8000398e:	1a1047b7          	lui	a5,0x1a104
    80003992:	1bc7a503          	lw	a0,444(a5) # 1a1041bc <_tbss_end+0x1a1041bc>
    80003996:	890d                	andi	a0,a0,3
    80003998:	8082                	ret

000000008000399a <alsaqr_periph_padframe_periphs_pad_gpio_b_56_cfg_chip2pad_set>:
    8000399a:	1a104737          	lui	a4,0x1a104
    8000399e:	1c072783          	lw	a5,448(a4) # 1a1041c0 <_tbss_end+0x1a1041c0>
    800039a2:	00a03533          	snez	a0,a0
    800039a6:	9bf9                	andi	a5,a5,-2
    800039a8:	8fc9                	or	a5,a5,a0
    800039aa:	1cf72023          	sw	a5,448(a4)
    800039ae:	8082                	ret

00000000800039b0 <alsaqr_periph_padframe_periphs_pad_gpio_b_56_cfg_chip2pad_get>:
    800039b0:	1a1047b7          	lui	a5,0x1a104
    800039b4:	1c07a503          	lw	a0,448(a5) # 1a1041c0 <_tbss_end+0x1a1041c0>
    800039b8:	8905                	andi	a0,a0,1
    800039ba:	8082                	ret

00000000800039bc <alsaqr_periph_padframe_periphs_pad_gpio_b_56_cfg_oen_set>:
    800039bc:	1a104737          	lui	a4,0x1a104
    800039c0:	1c072783          	lw	a5,448(a4) # 1a1041c0 <_tbss_end+0x1a1041c0>
    800039c4:	00a03533          	snez	a0,a0
    800039c8:	0015151b          	slliw	a0,a0,0x1
    800039cc:	9bf5                	andi	a5,a5,-3
    800039ce:	8fc9                	or	a5,a5,a0
    800039d0:	1cf72023          	sw	a5,448(a4)
    800039d4:	8082                	ret

00000000800039d6 <alsaqr_periph_padframe_periphs_pad_gpio_b_56_cfg_oen_get>:
    800039d6:	1a1047b7          	lui	a5,0x1a104
    800039da:	1c07a503          	lw	a0,448(a5) # 1a1041c0 <_tbss_end+0x1a1041c0>
    800039de:	0015551b          	srliw	a0,a0,0x1
    800039e2:	8905                	andi	a0,a0,1
    800039e4:	8082                	ret

00000000800039e6 <alsaqr_periph_padframe_periphs_pad_gpio_b_56_cfg_puen_set>:
    800039e6:	1a104737          	lui	a4,0x1a104
    800039ea:	1c072783          	lw	a5,448(a4) # 1a1041c0 <_tbss_end+0x1a1041c0>
    800039ee:	00a03533          	snez	a0,a0
    800039f2:	0025151b          	slliw	a0,a0,0x2
    800039f6:	9bed                	andi	a5,a5,-5
    800039f8:	8fc9                	or	a5,a5,a0
    800039fa:	1cf72023          	sw	a5,448(a4)
    800039fe:	8082                	ret

0000000080003a00 <alsaqr_periph_padframe_periphs_pad_gpio_b_56_cfg_puen_get>:
    80003a00:	1a1047b7          	lui	a5,0x1a104
    80003a04:	1c07a503          	lw	a0,448(a5) # 1a1041c0 <_tbss_end+0x1a1041c0>
    80003a08:	0025551b          	srliw	a0,a0,0x2
    80003a0c:	8905                	andi	a0,a0,1
    80003a0e:	8082                	ret

0000000080003a10 <alsaqr_periph_padframe_periphs_pad_gpio_b_56_mux_set>:
    80003a10:	8905                	andi	a0,a0,1
    80003a12:	1a1047b7          	lui	a5,0x1a104
    80003a16:	1ca7a223          	sw	a0,452(a5) # 1a1041c4 <_tbss_end+0x1a1041c4>
    80003a1a:	8082                	ret

0000000080003a1c <alsaqr_periph_padframe_periphs_pad_gpio_b_56_mux_get>:
    80003a1c:	1a1047b7          	lui	a5,0x1a104
    80003a20:	1c47a503          	lw	a0,452(a5) # 1a1041c4 <_tbss_end+0x1a1041c4>
    80003a24:	8905                	andi	a0,a0,1
    80003a26:	8082                	ret

0000000080003a28 <alsaqr_periph_padframe_periphs_pad_gpio_b_57_cfg_chip2pad_set>:
    80003a28:	1a104737          	lui	a4,0x1a104
    80003a2c:	1c872783          	lw	a5,456(a4) # 1a1041c8 <_tbss_end+0x1a1041c8>
    80003a30:	00a03533          	snez	a0,a0
    80003a34:	9bf9                	andi	a5,a5,-2
    80003a36:	8fc9                	or	a5,a5,a0
    80003a38:	1cf72423          	sw	a5,456(a4)
    80003a3c:	8082                	ret

0000000080003a3e <alsaqr_periph_padframe_periphs_pad_gpio_b_57_cfg_chip2pad_get>:
    80003a3e:	1a1047b7          	lui	a5,0x1a104
    80003a42:	1c87a503          	lw	a0,456(a5) # 1a1041c8 <_tbss_end+0x1a1041c8>
    80003a46:	8905                	andi	a0,a0,1
    80003a48:	8082                	ret

0000000080003a4a <alsaqr_periph_padframe_periphs_pad_gpio_b_57_cfg_oen_set>:
    80003a4a:	1a104737          	lui	a4,0x1a104
    80003a4e:	1c872783          	lw	a5,456(a4) # 1a1041c8 <_tbss_end+0x1a1041c8>
    80003a52:	00a03533          	snez	a0,a0
    80003a56:	0015151b          	slliw	a0,a0,0x1
    80003a5a:	9bf5                	andi	a5,a5,-3
    80003a5c:	8fc9                	or	a5,a5,a0
    80003a5e:	1cf72423          	sw	a5,456(a4)
    80003a62:	8082                	ret

0000000080003a64 <alsaqr_periph_padframe_periphs_pad_gpio_b_57_cfg_oen_get>:
    80003a64:	1a1047b7          	lui	a5,0x1a104
    80003a68:	1c87a503          	lw	a0,456(a5) # 1a1041c8 <_tbss_end+0x1a1041c8>
    80003a6c:	0015551b          	srliw	a0,a0,0x1
    80003a70:	8905                	andi	a0,a0,1
    80003a72:	8082                	ret

0000000080003a74 <alsaqr_periph_padframe_periphs_pad_gpio_b_57_cfg_puen_set>:
    80003a74:	1a104737          	lui	a4,0x1a104
    80003a78:	1c872783          	lw	a5,456(a4) # 1a1041c8 <_tbss_end+0x1a1041c8>
    80003a7c:	00a03533          	snez	a0,a0
    80003a80:	0025151b          	slliw	a0,a0,0x2
    80003a84:	9bed                	andi	a5,a5,-5
    80003a86:	8fc9                	or	a5,a5,a0
    80003a88:	1cf72423          	sw	a5,456(a4)
    80003a8c:	8082                	ret

0000000080003a8e <alsaqr_periph_padframe_periphs_pad_gpio_b_57_cfg_puen_get>:
    80003a8e:	1a1047b7          	lui	a5,0x1a104
    80003a92:	1c87a503          	lw	a0,456(a5) # 1a1041c8 <_tbss_end+0x1a1041c8>
    80003a96:	0025551b          	srliw	a0,a0,0x2
    80003a9a:	8905                	andi	a0,a0,1
    80003a9c:	8082                	ret

0000000080003a9e <alsaqr_periph_padframe_periphs_pad_gpio_b_57_mux_set>:
    80003a9e:	8905                	andi	a0,a0,1
    80003aa0:	1a1047b7          	lui	a5,0x1a104
    80003aa4:	1ca7a623          	sw	a0,460(a5) # 1a1041cc <_tbss_end+0x1a1041cc>
    80003aa8:	8082                	ret

0000000080003aaa <alsaqr_periph_padframe_periphs_pad_gpio_b_57_mux_get>:
    80003aaa:	1a1047b7          	lui	a5,0x1a104
    80003aae:	1cc7a503          	lw	a0,460(a5) # 1a1041cc <_tbss_end+0x1a1041cc>
    80003ab2:	8905                	andi	a0,a0,1
    80003ab4:	8082                	ret

0000000080003ab6 <alsaqr_periph_padframe_periphs_pad_gpio_b_58_cfg_chip2pad_set>:
    80003ab6:	1a104737          	lui	a4,0x1a104
    80003aba:	1d072783          	lw	a5,464(a4) # 1a1041d0 <_tbss_end+0x1a1041d0>
    80003abe:	00a03533          	snez	a0,a0
    80003ac2:	9bf9                	andi	a5,a5,-2
    80003ac4:	8fc9                	or	a5,a5,a0
    80003ac6:	1cf72823          	sw	a5,464(a4)
    80003aca:	8082                	ret

0000000080003acc <alsaqr_periph_padframe_periphs_pad_gpio_b_58_cfg_chip2pad_get>:
    80003acc:	1a1047b7          	lui	a5,0x1a104
    80003ad0:	1d07a503          	lw	a0,464(a5) # 1a1041d0 <_tbss_end+0x1a1041d0>
    80003ad4:	8905                	andi	a0,a0,1
    80003ad6:	8082                	ret

0000000080003ad8 <alsaqr_periph_padframe_periphs_pad_gpio_b_58_cfg_oen_set>:
    80003ad8:	1a104737          	lui	a4,0x1a104
    80003adc:	1d072783          	lw	a5,464(a4) # 1a1041d0 <_tbss_end+0x1a1041d0>
    80003ae0:	00a03533          	snez	a0,a0
    80003ae4:	0015151b          	slliw	a0,a0,0x1
    80003ae8:	9bf5                	andi	a5,a5,-3
    80003aea:	8fc9                	or	a5,a5,a0
    80003aec:	1cf72823          	sw	a5,464(a4)
    80003af0:	8082                	ret

0000000080003af2 <alsaqr_periph_padframe_periphs_pad_gpio_b_58_cfg_oen_get>:
    80003af2:	1a1047b7          	lui	a5,0x1a104
    80003af6:	1d07a503          	lw	a0,464(a5) # 1a1041d0 <_tbss_end+0x1a1041d0>
    80003afa:	0015551b          	srliw	a0,a0,0x1
    80003afe:	8905                	andi	a0,a0,1
    80003b00:	8082                	ret

0000000080003b02 <alsaqr_periph_padframe_periphs_pad_gpio_b_58_cfg_puen_set>:
    80003b02:	1a104737          	lui	a4,0x1a104
    80003b06:	1d072783          	lw	a5,464(a4) # 1a1041d0 <_tbss_end+0x1a1041d0>
    80003b0a:	00a03533          	snez	a0,a0
    80003b0e:	0025151b          	slliw	a0,a0,0x2
    80003b12:	9bed                	andi	a5,a5,-5
    80003b14:	8fc9                	or	a5,a5,a0
    80003b16:	1cf72823          	sw	a5,464(a4)
    80003b1a:	8082                	ret

0000000080003b1c <alsaqr_periph_padframe_periphs_pad_gpio_b_58_cfg_puen_get>:
    80003b1c:	1a1047b7          	lui	a5,0x1a104
    80003b20:	1d07a503          	lw	a0,464(a5) # 1a1041d0 <_tbss_end+0x1a1041d0>
    80003b24:	0025551b          	srliw	a0,a0,0x2
    80003b28:	8905                	andi	a0,a0,1
    80003b2a:	8082                	ret

0000000080003b2c <alsaqr_periph_padframe_periphs_pad_gpio_b_58_mux_set>:
    80003b2c:	8905                	andi	a0,a0,1
    80003b2e:	1a1047b7          	lui	a5,0x1a104
    80003b32:	1ca7aa23          	sw	a0,468(a5) # 1a1041d4 <_tbss_end+0x1a1041d4>
    80003b36:	8082                	ret

0000000080003b38 <alsaqr_periph_padframe_periphs_pad_gpio_b_58_mux_get>:
    80003b38:	1a1047b7          	lui	a5,0x1a104
    80003b3c:	1d47a503          	lw	a0,468(a5) # 1a1041d4 <_tbss_end+0x1a1041d4>
    80003b40:	8905                	andi	a0,a0,1
    80003b42:	8082                	ret

0000000080003b44 <alsaqr_periph_padframe_periphs_pad_gpio_b_59_cfg_chip2pad_set>:
    80003b44:	1a104737          	lui	a4,0x1a104
    80003b48:	1d872783          	lw	a5,472(a4) # 1a1041d8 <_tbss_end+0x1a1041d8>
    80003b4c:	00a03533          	snez	a0,a0
    80003b50:	9bf9                	andi	a5,a5,-2
    80003b52:	8fc9                	or	a5,a5,a0
    80003b54:	1cf72c23          	sw	a5,472(a4)
    80003b58:	8082                	ret

0000000080003b5a <alsaqr_periph_padframe_periphs_pad_gpio_b_59_cfg_chip2pad_get>:
    80003b5a:	1a1047b7          	lui	a5,0x1a104
    80003b5e:	1d87a503          	lw	a0,472(a5) # 1a1041d8 <_tbss_end+0x1a1041d8>
    80003b62:	8905                	andi	a0,a0,1
    80003b64:	8082                	ret

0000000080003b66 <alsaqr_periph_padframe_periphs_pad_gpio_b_59_cfg_oen_set>:
    80003b66:	1a104737          	lui	a4,0x1a104
    80003b6a:	1d872783          	lw	a5,472(a4) # 1a1041d8 <_tbss_end+0x1a1041d8>
    80003b6e:	00a03533          	snez	a0,a0
    80003b72:	0015151b          	slliw	a0,a0,0x1
    80003b76:	9bf5                	andi	a5,a5,-3
    80003b78:	8fc9                	or	a5,a5,a0
    80003b7a:	1cf72c23          	sw	a5,472(a4)
    80003b7e:	8082                	ret

0000000080003b80 <alsaqr_periph_padframe_periphs_pad_gpio_b_59_cfg_oen_get>:
    80003b80:	1a1047b7          	lui	a5,0x1a104
    80003b84:	1d87a503          	lw	a0,472(a5) # 1a1041d8 <_tbss_end+0x1a1041d8>
    80003b88:	0015551b          	srliw	a0,a0,0x1
    80003b8c:	8905                	andi	a0,a0,1
    80003b8e:	8082                	ret

0000000080003b90 <alsaqr_periph_padframe_periphs_pad_gpio_b_59_cfg_puen_set>:
    80003b90:	1a104737          	lui	a4,0x1a104
    80003b94:	1d872783          	lw	a5,472(a4) # 1a1041d8 <_tbss_end+0x1a1041d8>
    80003b98:	00a03533          	snez	a0,a0
    80003b9c:	0025151b          	slliw	a0,a0,0x2
    80003ba0:	9bed                	andi	a5,a5,-5
    80003ba2:	8fc9                	or	a5,a5,a0
    80003ba4:	1cf72c23          	sw	a5,472(a4)
    80003ba8:	8082                	ret

0000000080003baa <alsaqr_periph_padframe_periphs_pad_gpio_b_59_cfg_puen_get>:
    80003baa:	1a1047b7          	lui	a5,0x1a104
    80003bae:	1d87a503          	lw	a0,472(a5) # 1a1041d8 <_tbss_end+0x1a1041d8>
    80003bb2:	0025551b          	srliw	a0,a0,0x2
    80003bb6:	8905                	andi	a0,a0,1
    80003bb8:	8082                	ret

0000000080003bba <alsaqr_periph_padframe_periphs_pad_gpio_b_59_mux_set>:
    80003bba:	8905                	andi	a0,a0,1
    80003bbc:	1a1047b7          	lui	a5,0x1a104
    80003bc0:	1ca7ae23          	sw	a0,476(a5) # 1a1041dc <_tbss_end+0x1a1041dc>
    80003bc4:	8082                	ret

0000000080003bc6 <alsaqr_periph_padframe_periphs_pad_gpio_b_59_mux_get>:
    80003bc6:	1a1047b7          	lui	a5,0x1a104
    80003bca:	1dc7a503          	lw	a0,476(a5) # 1a1041dc <_tbss_end+0x1a1041dc>
    80003bce:	8905                	andi	a0,a0,1
    80003bd0:	8082                	ret

0000000080003bd2 <alsaqr_periph_padframe_periphs_pad_gpio_b_60_cfg_chip2pad_set>:
    80003bd2:	1a104737          	lui	a4,0x1a104
    80003bd6:	1e072783          	lw	a5,480(a4) # 1a1041e0 <_tbss_end+0x1a1041e0>
    80003bda:	00a03533          	snez	a0,a0
    80003bde:	9bf9                	andi	a5,a5,-2
    80003be0:	8fc9                	or	a5,a5,a0
    80003be2:	1ef72023          	sw	a5,480(a4)
    80003be6:	8082                	ret

0000000080003be8 <alsaqr_periph_padframe_periphs_pad_gpio_b_60_cfg_chip2pad_get>:
    80003be8:	1a1047b7          	lui	a5,0x1a104
    80003bec:	1e07a503          	lw	a0,480(a5) # 1a1041e0 <_tbss_end+0x1a1041e0>
    80003bf0:	8905                	andi	a0,a0,1
    80003bf2:	8082                	ret

0000000080003bf4 <alsaqr_periph_padframe_periphs_pad_gpio_b_60_cfg_oen_set>:
    80003bf4:	1a104737          	lui	a4,0x1a104
    80003bf8:	1e072783          	lw	a5,480(a4) # 1a1041e0 <_tbss_end+0x1a1041e0>
    80003bfc:	00a03533          	snez	a0,a0
    80003c00:	0015151b          	slliw	a0,a0,0x1
    80003c04:	9bf5                	andi	a5,a5,-3
    80003c06:	8fc9                	or	a5,a5,a0
    80003c08:	1ef72023          	sw	a5,480(a4)
    80003c0c:	8082                	ret

0000000080003c0e <alsaqr_periph_padframe_periphs_pad_gpio_b_60_cfg_oen_get>:
    80003c0e:	1a1047b7          	lui	a5,0x1a104
    80003c12:	1e07a503          	lw	a0,480(a5) # 1a1041e0 <_tbss_end+0x1a1041e0>
    80003c16:	0015551b          	srliw	a0,a0,0x1
    80003c1a:	8905                	andi	a0,a0,1
    80003c1c:	8082                	ret

0000000080003c1e <alsaqr_periph_padframe_periphs_pad_gpio_b_60_cfg_puen_set>:
    80003c1e:	1a104737          	lui	a4,0x1a104
    80003c22:	1e072783          	lw	a5,480(a4) # 1a1041e0 <_tbss_end+0x1a1041e0>
    80003c26:	00a03533          	snez	a0,a0
    80003c2a:	0025151b          	slliw	a0,a0,0x2
    80003c2e:	9bed                	andi	a5,a5,-5
    80003c30:	8fc9                	or	a5,a5,a0
    80003c32:	1ef72023          	sw	a5,480(a4)
    80003c36:	8082                	ret

0000000080003c38 <alsaqr_periph_padframe_periphs_pad_gpio_b_60_cfg_puen_get>:
    80003c38:	1a1047b7          	lui	a5,0x1a104
    80003c3c:	1e07a503          	lw	a0,480(a5) # 1a1041e0 <_tbss_end+0x1a1041e0>
    80003c40:	0025551b          	srliw	a0,a0,0x2
    80003c44:	8905                	andi	a0,a0,1
    80003c46:	8082                	ret

0000000080003c48 <alsaqr_periph_padframe_periphs_pad_gpio_b_60_mux_set>:
    80003c48:	8905                	andi	a0,a0,1
    80003c4a:	1a1047b7          	lui	a5,0x1a104
    80003c4e:	1ea7a223          	sw	a0,484(a5) # 1a1041e4 <_tbss_end+0x1a1041e4>
    80003c52:	8082                	ret

0000000080003c54 <alsaqr_periph_padframe_periphs_pad_gpio_b_60_mux_get>:
    80003c54:	1a1047b7          	lui	a5,0x1a104
    80003c58:	1e47a503          	lw	a0,484(a5) # 1a1041e4 <_tbss_end+0x1a1041e4>
    80003c5c:	8905                	andi	a0,a0,1
    80003c5e:	8082                	ret

0000000080003c60 <alsaqr_periph_padframe_periphs_pad_gpio_b_61_cfg_chip2pad_set>:
    80003c60:	1a104737          	lui	a4,0x1a104
    80003c64:	1e872783          	lw	a5,488(a4) # 1a1041e8 <_tbss_end+0x1a1041e8>
    80003c68:	00a03533          	snez	a0,a0
    80003c6c:	9bf9                	andi	a5,a5,-2
    80003c6e:	8fc9                	or	a5,a5,a0
    80003c70:	1ef72423          	sw	a5,488(a4)
    80003c74:	8082                	ret

0000000080003c76 <alsaqr_periph_padframe_periphs_pad_gpio_b_61_cfg_chip2pad_get>:
    80003c76:	1a1047b7          	lui	a5,0x1a104
    80003c7a:	1e87a503          	lw	a0,488(a5) # 1a1041e8 <_tbss_end+0x1a1041e8>
    80003c7e:	8905                	andi	a0,a0,1
    80003c80:	8082                	ret

0000000080003c82 <alsaqr_periph_padframe_periphs_pad_gpio_b_61_cfg_oen_set>:
    80003c82:	1a104737          	lui	a4,0x1a104
    80003c86:	1e872783          	lw	a5,488(a4) # 1a1041e8 <_tbss_end+0x1a1041e8>
    80003c8a:	00a03533          	snez	a0,a0
    80003c8e:	0015151b          	slliw	a0,a0,0x1
    80003c92:	9bf5                	andi	a5,a5,-3
    80003c94:	8fc9                	or	a5,a5,a0
    80003c96:	1ef72423          	sw	a5,488(a4)
    80003c9a:	8082                	ret

0000000080003c9c <alsaqr_periph_padframe_periphs_pad_gpio_b_61_cfg_oen_get>:
    80003c9c:	1a1047b7          	lui	a5,0x1a104
    80003ca0:	1e87a503          	lw	a0,488(a5) # 1a1041e8 <_tbss_end+0x1a1041e8>
    80003ca4:	0015551b          	srliw	a0,a0,0x1
    80003ca8:	8905                	andi	a0,a0,1
    80003caa:	8082                	ret

0000000080003cac <alsaqr_periph_padframe_periphs_pad_gpio_b_61_cfg_puen_set>:
    80003cac:	1a104737          	lui	a4,0x1a104
    80003cb0:	1e872783          	lw	a5,488(a4) # 1a1041e8 <_tbss_end+0x1a1041e8>
    80003cb4:	00a03533          	snez	a0,a0
    80003cb8:	0025151b          	slliw	a0,a0,0x2
    80003cbc:	9bed                	andi	a5,a5,-5
    80003cbe:	8fc9                	or	a5,a5,a0
    80003cc0:	1ef72423          	sw	a5,488(a4)
    80003cc4:	8082                	ret

0000000080003cc6 <alsaqr_periph_padframe_periphs_pad_gpio_b_61_cfg_puen_get>:
    80003cc6:	1a1047b7          	lui	a5,0x1a104
    80003cca:	1e87a503          	lw	a0,488(a5) # 1a1041e8 <_tbss_end+0x1a1041e8>
    80003cce:	0025551b          	srliw	a0,a0,0x2
    80003cd2:	8905                	andi	a0,a0,1
    80003cd4:	8082                	ret

0000000080003cd6 <alsaqr_periph_padframe_periphs_pad_gpio_b_61_mux_set>:
    80003cd6:	8905                	andi	a0,a0,1
    80003cd8:	1a1047b7          	lui	a5,0x1a104
    80003cdc:	1ea7a623          	sw	a0,492(a5) # 1a1041ec <_tbss_end+0x1a1041ec>
    80003ce0:	8082                	ret

0000000080003ce2 <alsaqr_periph_padframe_periphs_pad_gpio_b_61_mux_get>:
    80003ce2:	1a1047b7          	lui	a5,0x1a104
    80003ce6:	1ec7a503          	lw	a0,492(a5) # 1a1041ec <_tbss_end+0x1a1041ec>
    80003cea:	8905                	andi	a0,a0,1
    80003cec:	8082                	ret

0000000080003cee <alsaqr_periph_padframe_periphs_pad_gpio_c_00_cfg_chip2pad_set>:
    80003cee:	1a104737          	lui	a4,0x1a104
    80003cf2:	1f072783          	lw	a5,496(a4) # 1a1041f0 <_tbss_end+0x1a1041f0>
    80003cf6:	00a03533          	snez	a0,a0
    80003cfa:	9bf9                	andi	a5,a5,-2
    80003cfc:	8fc9                	or	a5,a5,a0
    80003cfe:	1ef72823          	sw	a5,496(a4)
    80003d02:	8082                	ret

0000000080003d04 <alsaqr_periph_padframe_periphs_pad_gpio_c_00_cfg_chip2pad_get>:
    80003d04:	1a1047b7          	lui	a5,0x1a104
    80003d08:	1f07a503          	lw	a0,496(a5) # 1a1041f0 <_tbss_end+0x1a1041f0>
    80003d0c:	8905                	andi	a0,a0,1
    80003d0e:	8082                	ret

0000000080003d10 <alsaqr_periph_padframe_periphs_pad_gpio_c_00_cfg_oen_set>:
    80003d10:	1a104737          	lui	a4,0x1a104
    80003d14:	1f072783          	lw	a5,496(a4) # 1a1041f0 <_tbss_end+0x1a1041f0>
    80003d18:	00a03533          	snez	a0,a0
    80003d1c:	0015151b          	slliw	a0,a0,0x1
    80003d20:	9bf5                	andi	a5,a5,-3
    80003d22:	8fc9                	or	a5,a5,a0
    80003d24:	1ef72823          	sw	a5,496(a4)
    80003d28:	8082                	ret

0000000080003d2a <alsaqr_periph_padframe_periphs_pad_gpio_c_00_cfg_oen_get>:
    80003d2a:	1a1047b7          	lui	a5,0x1a104
    80003d2e:	1f07a503          	lw	a0,496(a5) # 1a1041f0 <_tbss_end+0x1a1041f0>
    80003d32:	0015551b          	srliw	a0,a0,0x1
    80003d36:	8905                	andi	a0,a0,1
    80003d38:	8082                	ret

0000000080003d3a <alsaqr_periph_padframe_periphs_pad_gpio_c_00_cfg_puen_set>:
    80003d3a:	1a104737          	lui	a4,0x1a104
    80003d3e:	1f072783          	lw	a5,496(a4) # 1a1041f0 <_tbss_end+0x1a1041f0>
    80003d42:	00a03533          	snez	a0,a0
    80003d46:	0025151b          	slliw	a0,a0,0x2
    80003d4a:	9bed                	andi	a5,a5,-5
    80003d4c:	8fc9                	or	a5,a5,a0
    80003d4e:	1ef72823          	sw	a5,496(a4)
    80003d52:	8082                	ret

0000000080003d54 <alsaqr_periph_padframe_periphs_pad_gpio_c_00_cfg_puen_get>:
    80003d54:	1a1047b7          	lui	a5,0x1a104
    80003d58:	1f07a503          	lw	a0,496(a5) # 1a1041f0 <_tbss_end+0x1a1041f0>
    80003d5c:	0025551b          	srliw	a0,a0,0x2
    80003d60:	8905                	andi	a0,a0,1
    80003d62:	8082                	ret

0000000080003d64 <alsaqr_periph_padframe_periphs_pad_gpio_c_00_mux_set>:
    80003d64:	890d                	andi	a0,a0,3
    80003d66:	1a1047b7          	lui	a5,0x1a104
    80003d6a:	1ea7aa23          	sw	a0,500(a5) # 1a1041f4 <_tbss_end+0x1a1041f4>
    80003d6e:	8082                	ret

0000000080003d70 <alsaqr_periph_padframe_periphs_pad_gpio_c_00_mux_get>:
    80003d70:	1a1047b7          	lui	a5,0x1a104
    80003d74:	1f47a503          	lw	a0,500(a5) # 1a1041f4 <_tbss_end+0x1a1041f4>
    80003d78:	890d                	andi	a0,a0,3
    80003d7a:	8082                	ret

0000000080003d7c <alsaqr_periph_padframe_periphs_pad_gpio_c_01_cfg_chip2pad_set>:
    80003d7c:	1a104737          	lui	a4,0x1a104
    80003d80:	1f872783          	lw	a5,504(a4) # 1a1041f8 <_tbss_end+0x1a1041f8>
    80003d84:	00a03533          	snez	a0,a0
    80003d88:	9bf9                	andi	a5,a5,-2
    80003d8a:	8fc9                	or	a5,a5,a0
    80003d8c:	1ef72c23          	sw	a5,504(a4)
    80003d90:	8082                	ret

0000000080003d92 <alsaqr_periph_padframe_periphs_pad_gpio_c_01_cfg_chip2pad_get>:
    80003d92:	1a1047b7          	lui	a5,0x1a104
    80003d96:	1f87a503          	lw	a0,504(a5) # 1a1041f8 <_tbss_end+0x1a1041f8>
    80003d9a:	8905                	andi	a0,a0,1
    80003d9c:	8082                	ret

0000000080003d9e <alsaqr_periph_padframe_periphs_pad_gpio_c_01_cfg_oen_set>:
    80003d9e:	1a104737          	lui	a4,0x1a104
    80003da2:	1f872783          	lw	a5,504(a4) # 1a1041f8 <_tbss_end+0x1a1041f8>
    80003da6:	00a03533          	snez	a0,a0
    80003daa:	0015151b          	slliw	a0,a0,0x1
    80003dae:	9bf5                	andi	a5,a5,-3
    80003db0:	8fc9                	or	a5,a5,a0
    80003db2:	1ef72c23          	sw	a5,504(a4)
    80003db6:	8082                	ret

0000000080003db8 <alsaqr_periph_padframe_periphs_pad_gpio_c_01_cfg_oen_get>:
    80003db8:	1a1047b7          	lui	a5,0x1a104
    80003dbc:	1f87a503          	lw	a0,504(a5) # 1a1041f8 <_tbss_end+0x1a1041f8>
    80003dc0:	0015551b          	srliw	a0,a0,0x1
    80003dc4:	8905                	andi	a0,a0,1
    80003dc6:	8082                	ret

0000000080003dc8 <alsaqr_periph_padframe_periphs_pad_gpio_c_01_cfg_puen_set>:
    80003dc8:	1a104737          	lui	a4,0x1a104
    80003dcc:	1f872783          	lw	a5,504(a4) # 1a1041f8 <_tbss_end+0x1a1041f8>
    80003dd0:	00a03533          	snez	a0,a0
    80003dd4:	0025151b          	slliw	a0,a0,0x2
    80003dd8:	9bed                	andi	a5,a5,-5
    80003dda:	8fc9                	or	a5,a5,a0
    80003ddc:	1ef72c23          	sw	a5,504(a4)
    80003de0:	8082                	ret

0000000080003de2 <alsaqr_periph_padframe_periphs_pad_gpio_c_01_cfg_puen_get>:
    80003de2:	1a1047b7          	lui	a5,0x1a104
    80003de6:	1f87a503          	lw	a0,504(a5) # 1a1041f8 <_tbss_end+0x1a1041f8>
    80003dea:	0025551b          	srliw	a0,a0,0x2
    80003dee:	8905                	andi	a0,a0,1
    80003df0:	8082                	ret

0000000080003df2 <alsaqr_periph_padframe_periphs_pad_gpio_c_01_mux_set>:
    80003df2:	890d                	andi	a0,a0,3
    80003df4:	1a1047b7          	lui	a5,0x1a104
    80003df8:	1ea7ae23          	sw	a0,508(a5) # 1a1041fc <_tbss_end+0x1a1041fc>
    80003dfc:	8082                	ret

0000000080003dfe <alsaqr_periph_padframe_periphs_pad_gpio_c_01_mux_get>:
    80003dfe:	1a1047b7          	lui	a5,0x1a104
    80003e02:	1fc7a503          	lw	a0,508(a5) # 1a1041fc <_tbss_end+0x1a1041fc>
    80003e06:	890d                	andi	a0,a0,3
    80003e08:	8082                	ret

0000000080003e0a <alsaqr_periph_padframe_periphs_pad_gpio_c_02_cfg_chip2pad_set>:
    80003e0a:	1a104737          	lui	a4,0x1a104
    80003e0e:	20072783          	lw	a5,512(a4) # 1a104200 <_tbss_end+0x1a104200>
    80003e12:	00a03533          	snez	a0,a0
    80003e16:	9bf9                	andi	a5,a5,-2
    80003e18:	8fc9                	or	a5,a5,a0
    80003e1a:	20f72023          	sw	a5,512(a4)
    80003e1e:	8082                	ret

0000000080003e20 <alsaqr_periph_padframe_periphs_pad_gpio_c_02_cfg_chip2pad_get>:
    80003e20:	1a1047b7          	lui	a5,0x1a104
    80003e24:	2007a503          	lw	a0,512(a5) # 1a104200 <_tbss_end+0x1a104200>
    80003e28:	8905                	andi	a0,a0,1
    80003e2a:	8082                	ret

0000000080003e2c <alsaqr_periph_padframe_periphs_pad_gpio_c_02_cfg_oen_set>:
    80003e2c:	1a104737          	lui	a4,0x1a104
    80003e30:	20072783          	lw	a5,512(a4) # 1a104200 <_tbss_end+0x1a104200>
    80003e34:	00a03533          	snez	a0,a0
    80003e38:	0015151b          	slliw	a0,a0,0x1
    80003e3c:	9bf5                	andi	a5,a5,-3
    80003e3e:	8fc9                	or	a5,a5,a0
    80003e40:	20f72023          	sw	a5,512(a4)
    80003e44:	8082                	ret

0000000080003e46 <alsaqr_periph_padframe_periphs_pad_gpio_c_02_cfg_oen_get>:
    80003e46:	1a1047b7          	lui	a5,0x1a104
    80003e4a:	2007a503          	lw	a0,512(a5) # 1a104200 <_tbss_end+0x1a104200>
    80003e4e:	0015551b          	srliw	a0,a0,0x1
    80003e52:	8905                	andi	a0,a0,1
    80003e54:	8082                	ret

0000000080003e56 <alsaqr_periph_padframe_periphs_pad_gpio_c_02_cfg_puen_set>:
    80003e56:	1a104737          	lui	a4,0x1a104
    80003e5a:	20072783          	lw	a5,512(a4) # 1a104200 <_tbss_end+0x1a104200>
    80003e5e:	00a03533          	snez	a0,a0
    80003e62:	0025151b          	slliw	a0,a0,0x2
    80003e66:	9bed                	andi	a5,a5,-5
    80003e68:	8fc9                	or	a5,a5,a0
    80003e6a:	20f72023          	sw	a5,512(a4)
    80003e6e:	8082                	ret

0000000080003e70 <alsaqr_periph_padframe_periphs_pad_gpio_c_02_cfg_puen_get>:
    80003e70:	1a1047b7          	lui	a5,0x1a104
    80003e74:	2007a503          	lw	a0,512(a5) # 1a104200 <_tbss_end+0x1a104200>
    80003e78:	0025551b          	srliw	a0,a0,0x2
    80003e7c:	8905                	andi	a0,a0,1
    80003e7e:	8082                	ret

0000000080003e80 <alsaqr_periph_padframe_periphs_pad_gpio_c_02_mux_set>:
    80003e80:	890d                	andi	a0,a0,3
    80003e82:	1a1047b7          	lui	a5,0x1a104
    80003e86:	20a7a223          	sw	a0,516(a5) # 1a104204 <_tbss_end+0x1a104204>
    80003e8a:	8082                	ret

0000000080003e8c <alsaqr_periph_padframe_periphs_pad_gpio_c_02_mux_get>:
    80003e8c:	1a1047b7          	lui	a5,0x1a104
    80003e90:	2047a503          	lw	a0,516(a5) # 1a104204 <_tbss_end+0x1a104204>
    80003e94:	890d                	andi	a0,a0,3
    80003e96:	8082                	ret

0000000080003e98 <alsaqr_periph_padframe_periphs_pad_gpio_c_03_cfg_chip2pad_set>:
    80003e98:	1a104737          	lui	a4,0x1a104
    80003e9c:	20872783          	lw	a5,520(a4) # 1a104208 <_tbss_end+0x1a104208>
    80003ea0:	00a03533          	snez	a0,a0
    80003ea4:	9bf9                	andi	a5,a5,-2
    80003ea6:	8fc9                	or	a5,a5,a0
    80003ea8:	20f72423          	sw	a5,520(a4)
    80003eac:	8082                	ret

0000000080003eae <alsaqr_periph_padframe_periphs_pad_gpio_c_03_cfg_chip2pad_get>:
    80003eae:	1a1047b7          	lui	a5,0x1a104
    80003eb2:	2087a503          	lw	a0,520(a5) # 1a104208 <_tbss_end+0x1a104208>
    80003eb6:	8905                	andi	a0,a0,1
    80003eb8:	8082                	ret

0000000080003eba <alsaqr_periph_padframe_periphs_pad_gpio_c_03_cfg_oen_set>:
    80003eba:	1a104737          	lui	a4,0x1a104
    80003ebe:	20872783          	lw	a5,520(a4) # 1a104208 <_tbss_end+0x1a104208>
    80003ec2:	00a03533          	snez	a0,a0
    80003ec6:	0015151b          	slliw	a0,a0,0x1
    80003eca:	9bf5                	andi	a5,a5,-3
    80003ecc:	8fc9                	or	a5,a5,a0
    80003ece:	20f72423          	sw	a5,520(a4)
    80003ed2:	8082                	ret

0000000080003ed4 <alsaqr_periph_padframe_periphs_pad_gpio_c_03_cfg_oen_get>:
    80003ed4:	1a1047b7          	lui	a5,0x1a104
    80003ed8:	2087a503          	lw	a0,520(a5) # 1a104208 <_tbss_end+0x1a104208>
    80003edc:	0015551b          	srliw	a0,a0,0x1
    80003ee0:	8905                	andi	a0,a0,1
    80003ee2:	8082                	ret

0000000080003ee4 <alsaqr_periph_padframe_periphs_pad_gpio_c_03_cfg_puen_set>:
    80003ee4:	1a104737          	lui	a4,0x1a104
    80003ee8:	20872783          	lw	a5,520(a4) # 1a104208 <_tbss_end+0x1a104208>
    80003eec:	00a03533          	snez	a0,a0
    80003ef0:	0025151b          	slliw	a0,a0,0x2
    80003ef4:	9bed                	andi	a5,a5,-5
    80003ef6:	8fc9                	or	a5,a5,a0
    80003ef8:	20f72423          	sw	a5,520(a4)
    80003efc:	8082                	ret

0000000080003efe <alsaqr_periph_padframe_periphs_pad_gpio_c_03_cfg_puen_get>:
    80003efe:	1a1047b7          	lui	a5,0x1a104
    80003f02:	2087a503          	lw	a0,520(a5) # 1a104208 <_tbss_end+0x1a104208>
    80003f06:	0025551b          	srliw	a0,a0,0x2
    80003f0a:	8905                	andi	a0,a0,1
    80003f0c:	8082                	ret

0000000080003f0e <alsaqr_periph_padframe_periphs_pad_gpio_c_03_mux_set>:
    80003f0e:	890d                	andi	a0,a0,3
    80003f10:	1a1047b7          	lui	a5,0x1a104
    80003f14:	20a7a623          	sw	a0,524(a5) # 1a10420c <_tbss_end+0x1a10420c>
    80003f18:	8082                	ret

0000000080003f1a <alsaqr_periph_padframe_periphs_pad_gpio_c_03_mux_get>:
    80003f1a:	1a1047b7          	lui	a5,0x1a104
    80003f1e:	20c7a503          	lw	a0,524(a5) # 1a10420c <_tbss_end+0x1a10420c>
    80003f22:	890d                	andi	a0,a0,3
    80003f24:	8082                	ret

0000000080003f26 <alsaqr_periph_padframe_periphs_pad_gpio_d_00_cfg_chip2pad_set>:
    80003f26:	1a104737          	lui	a4,0x1a104
    80003f2a:	21072783          	lw	a5,528(a4) # 1a104210 <_tbss_end+0x1a104210>
    80003f2e:	00a03533          	snez	a0,a0
    80003f32:	9bf9                	andi	a5,a5,-2
    80003f34:	8fc9                	or	a5,a5,a0
    80003f36:	20f72823          	sw	a5,528(a4)
    80003f3a:	8082                	ret

0000000080003f3c <alsaqr_periph_padframe_periphs_pad_gpio_d_00_cfg_chip2pad_get>:
    80003f3c:	1a1047b7          	lui	a5,0x1a104
    80003f40:	2107a503          	lw	a0,528(a5) # 1a104210 <_tbss_end+0x1a104210>
    80003f44:	8905                	andi	a0,a0,1
    80003f46:	8082                	ret

0000000080003f48 <alsaqr_periph_padframe_periphs_pad_gpio_d_00_cfg_oen_set>:
    80003f48:	1a104737          	lui	a4,0x1a104
    80003f4c:	21072783          	lw	a5,528(a4) # 1a104210 <_tbss_end+0x1a104210>
    80003f50:	00a03533          	snez	a0,a0
    80003f54:	0015151b          	slliw	a0,a0,0x1
    80003f58:	9bf5                	andi	a5,a5,-3
    80003f5a:	8fc9                	or	a5,a5,a0
    80003f5c:	20f72823          	sw	a5,528(a4)
    80003f60:	8082                	ret

0000000080003f62 <alsaqr_periph_padframe_periphs_pad_gpio_d_00_cfg_oen_get>:
    80003f62:	1a1047b7          	lui	a5,0x1a104
    80003f66:	2107a503          	lw	a0,528(a5) # 1a104210 <_tbss_end+0x1a104210>
    80003f6a:	0015551b          	srliw	a0,a0,0x1
    80003f6e:	8905                	andi	a0,a0,1
    80003f70:	8082                	ret

0000000080003f72 <alsaqr_periph_padframe_periphs_pad_gpio_d_00_cfg_puen_set>:
    80003f72:	1a104737          	lui	a4,0x1a104
    80003f76:	21072783          	lw	a5,528(a4) # 1a104210 <_tbss_end+0x1a104210>
    80003f7a:	00a03533          	snez	a0,a0
    80003f7e:	0025151b          	slliw	a0,a0,0x2
    80003f82:	9bed                	andi	a5,a5,-5
    80003f84:	8fc9                	or	a5,a5,a0
    80003f86:	20f72823          	sw	a5,528(a4)
    80003f8a:	8082                	ret

0000000080003f8c <alsaqr_periph_padframe_periphs_pad_gpio_d_00_cfg_puen_get>:
    80003f8c:	1a1047b7          	lui	a5,0x1a104
    80003f90:	2107a503          	lw	a0,528(a5) # 1a104210 <_tbss_end+0x1a104210>
    80003f94:	0025551b          	srliw	a0,a0,0x2
    80003f98:	8905                	andi	a0,a0,1
    80003f9a:	8082                	ret

0000000080003f9c <alsaqr_periph_padframe_periphs_pad_gpio_d_00_mux_set>:
    80003f9c:	890d                	andi	a0,a0,3
    80003f9e:	1a1047b7          	lui	a5,0x1a104
    80003fa2:	20a7aa23          	sw	a0,532(a5) # 1a104214 <_tbss_end+0x1a104214>
    80003fa6:	8082                	ret

0000000080003fa8 <alsaqr_periph_padframe_periphs_pad_gpio_d_00_mux_get>:
    80003fa8:	1a1047b7          	lui	a5,0x1a104
    80003fac:	2147a503          	lw	a0,532(a5) # 1a104214 <_tbss_end+0x1a104214>
    80003fb0:	890d                	andi	a0,a0,3
    80003fb2:	8082                	ret

0000000080003fb4 <alsaqr_periph_padframe_periphs_pad_gpio_d_01_cfg_chip2pad_set>:
    80003fb4:	1a104737          	lui	a4,0x1a104
    80003fb8:	21872783          	lw	a5,536(a4) # 1a104218 <_tbss_end+0x1a104218>
    80003fbc:	00a03533          	snez	a0,a0
    80003fc0:	9bf9                	andi	a5,a5,-2
    80003fc2:	8fc9                	or	a5,a5,a0
    80003fc4:	20f72c23          	sw	a5,536(a4)
    80003fc8:	8082                	ret

0000000080003fca <alsaqr_periph_padframe_periphs_pad_gpio_d_01_cfg_chip2pad_get>:
    80003fca:	1a1047b7          	lui	a5,0x1a104
    80003fce:	2187a503          	lw	a0,536(a5) # 1a104218 <_tbss_end+0x1a104218>
    80003fd2:	8905                	andi	a0,a0,1
    80003fd4:	8082                	ret

0000000080003fd6 <alsaqr_periph_padframe_periphs_pad_gpio_d_01_cfg_oen_set>:
    80003fd6:	1a104737          	lui	a4,0x1a104
    80003fda:	21872783          	lw	a5,536(a4) # 1a104218 <_tbss_end+0x1a104218>
    80003fde:	00a03533          	snez	a0,a0
    80003fe2:	0015151b          	slliw	a0,a0,0x1
    80003fe6:	9bf5                	andi	a5,a5,-3
    80003fe8:	8fc9                	or	a5,a5,a0
    80003fea:	20f72c23          	sw	a5,536(a4)
    80003fee:	8082                	ret

0000000080003ff0 <alsaqr_periph_padframe_periphs_pad_gpio_d_01_cfg_oen_get>:
    80003ff0:	1a1047b7          	lui	a5,0x1a104
    80003ff4:	2187a503          	lw	a0,536(a5) # 1a104218 <_tbss_end+0x1a104218>
    80003ff8:	0015551b          	srliw	a0,a0,0x1
    80003ffc:	8905                	andi	a0,a0,1
    80003ffe:	8082                	ret

0000000080004000 <alsaqr_periph_padframe_periphs_pad_gpio_d_01_cfg_puen_set>:
    80004000:	1a104737          	lui	a4,0x1a104
    80004004:	21872783          	lw	a5,536(a4) # 1a104218 <_tbss_end+0x1a104218>
    80004008:	00a03533          	snez	a0,a0
    8000400c:	0025151b          	slliw	a0,a0,0x2
    80004010:	9bed                	andi	a5,a5,-5
    80004012:	8fc9                	or	a5,a5,a0
    80004014:	20f72c23          	sw	a5,536(a4)
    80004018:	8082                	ret

000000008000401a <alsaqr_periph_padframe_periphs_pad_gpio_d_01_cfg_puen_get>:
    8000401a:	1a1047b7          	lui	a5,0x1a104
    8000401e:	2187a503          	lw	a0,536(a5) # 1a104218 <_tbss_end+0x1a104218>
    80004022:	0025551b          	srliw	a0,a0,0x2
    80004026:	8905                	andi	a0,a0,1
    80004028:	8082                	ret

000000008000402a <alsaqr_periph_padframe_periphs_pad_gpio_d_01_mux_set>:
    8000402a:	890d                	andi	a0,a0,3
    8000402c:	1a1047b7          	lui	a5,0x1a104
    80004030:	20a7ae23          	sw	a0,540(a5) # 1a10421c <_tbss_end+0x1a10421c>
    80004034:	8082                	ret

0000000080004036 <alsaqr_periph_padframe_periphs_pad_gpio_d_01_mux_get>:
    80004036:	1a1047b7          	lui	a5,0x1a104
    8000403a:	21c7a503          	lw	a0,540(a5) # 1a10421c <_tbss_end+0x1a10421c>
    8000403e:	890d                	andi	a0,a0,3
    80004040:	8082                	ret

0000000080004042 <alsaqr_periph_padframe_periphs_pad_gpio_d_02_cfg_chip2pad_set>:
    80004042:	1a104737          	lui	a4,0x1a104
    80004046:	22072783          	lw	a5,544(a4) # 1a104220 <_tbss_end+0x1a104220>
    8000404a:	00a03533          	snez	a0,a0
    8000404e:	9bf9                	andi	a5,a5,-2
    80004050:	8fc9                	or	a5,a5,a0
    80004052:	22f72023          	sw	a5,544(a4)
    80004056:	8082                	ret

0000000080004058 <alsaqr_periph_padframe_periphs_pad_gpio_d_02_cfg_chip2pad_get>:
    80004058:	1a1047b7          	lui	a5,0x1a104
    8000405c:	2207a503          	lw	a0,544(a5) # 1a104220 <_tbss_end+0x1a104220>
    80004060:	8905                	andi	a0,a0,1
    80004062:	8082                	ret

0000000080004064 <alsaqr_periph_padframe_periphs_pad_gpio_d_02_cfg_oen_set>:
    80004064:	1a104737          	lui	a4,0x1a104
    80004068:	22072783          	lw	a5,544(a4) # 1a104220 <_tbss_end+0x1a104220>
    8000406c:	00a03533          	snez	a0,a0
    80004070:	0015151b          	slliw	a0,a0,0x1
    80004074:	9bf5                	andi	a5,a5,-3
    80004076:	8fc9                	or	a5,a5,a0
    80004078:	22f72023          	sw	a5,544(a4)
    8000407c:	8082                	ret

000000008000407e <alsaqr_periph_padframe_periphs_pad_gpio_d_02_cfg_oen_get>:
    8000407e:	1a1047b7          	lui	a5,0x1a104
    80004082:	2207a503          	lw	a0,544(a5) # 1a104220 <_tbss_end+0x1a104220>
    80004086:	0015551b          	srliw	a0,a0,0x1
    8000408a:	8905                	andi	a0,a0,1
    8000408c:	8082                	ret

000000008000408e <alsaqr_periph_padframe_periphs_pad_gpio_d_02_cfg_puen_set>:
    8000408e:	1a104737          	lui	a4,0x1a104
    80004092:	22072783          	lw	a5,544(a4) # 1a104220 <_tbss_end+0x1a104220>
    80004096:	00a03533          	snez	a0,a0
    8000409a:	0025151b          	slliw	a0,a0,0x2
    8000409e:	9bed                	andi	a5,a5,-5
    800040a0:	8fc9                	or	a5,a5,a0
    800040a2:	22f72023          	sw	a5,544(a4)
    800040a6:	8082                	ret

00000000800040a8 <alsaqr_periph_padframe_periphs_pad_gpio_d_02_cfg_puen_get>:
    800040a8:	1a1047b7          	lui	a5,0x1a104
    800040ac:	2207a503          	lw	a0,544(a5) # 1a104220 <_tbss_end+0x1a104220>
    800040b0:	0025551b          	srliw	a0,a0,0x2
    800040b4:	8905                	andi	a0,a0,1
    800040b6:	8082                	ret

00000000800040b8 <alsaqr_periph_padframe_periphs_pad_gpio_d_02_mux_set>:
    800040b8:	890d                	andi	a0,a0,3
    800040ba:	1a1047b7          	lui	a5,0x1a104
    800040be:	22a7a223          	sw	a0,548(a5) # 1a104224 <_tbss_end+0x1a104224>
    800040c2:	8082                	ret

00000000800040c4 <alsaqr_periph_padframe_periphs_pad_gpio_d_02_mux_get>:
    800040c4:	1a1047b7          	lui	a5,0x1a104
    800040c8:	2247a503          	lw	a0,548(a5) # 1a104224 <_tbss_end+0x1a104224>
    800040cc:	890d                	andi	a0,a0,3
    800040ce:	8082                	ret

00000000800040d0 <alsaqr_periph_padframe_periphs_pad_gpio_d_03_cfg_chip2pad_set>:
    800040d0:	1a104737          	lui	a4,0x1a104
    800040d4:	22872783          	lw	a5,552(a4) # 1a104228 <_tbss_end+0x1a104228>
    800040d8:	00a03533          	snez	a0,a0
    800040dc:	9bf9                	andi	a5,a5,-2
    800040de:	8fc9                	or	a5,a5,a0
    800040e0:	22f72423          	sw	a5,552(a4)
    800040e4:	8082                	ret

00000000800040e6 <alsaqr_periph_padframe_periphs_pad_gpio_d_03_cfg_chip2pad_get>:
    800040e6:	1a1047b7          	lui	a5,0x1a104
    800040ea:	2287a503          	lw	a0,552(a5) # 1a104228 <_tbss_end+0x1a104228>
    800040ee:	8905                	andi	a0,a0,1
    800040f0:	8082                	ret

00000000800040f2 <alsaqr_periph_padframe_periphs_pad_gpio_d_03_cfg_oen_set>:
    800040f2:	1a104737          	lui	a4,0x1a104
    800040f6:	22872783          	lw	a5,552(a4) # 1a104228 <_tbss_end+0x1a104228>
    800040fa:	00a03533          	snez	a0,a0
    800040fe:	0015151b          	slliw	a0,a0,0x1
    80004102:	9bf5                	andi	a5,a5,-3
    80004104:	8fc9                	or	a5,a5,a0
    80004106:	22f72423          	sw	a5,552(a4)
    8000410a:	8082                	ret

000000008000410c <alsaqr_periph_padframe_periphs_pad_gpio_d_03_cfg_oen_get>:
    8000410c:	1a1047b7          	lui	a5,0x1a104
    80004110:	2287a503          	lw	a0,552(a5) # 1a104228 <_tbss_end+0x1a104228>
    80004114:	0015551b          	srliw	a0,a0,0x1
    80004118:	8905                	andi	a0,a0,1
    8000411a:	8082                	ret

000000008000411c <alsaqr_periph_padframe_periphs_pad_gpio_d_03_cfg_puen_set>:
    8000411c:	1a104737          	lui	a4,0x1a104
    80004120:	22872783          	lw	a5,552(a4) # 1a104228 <_tbss_end+0x1a104228>
    80004124:	00a03533          	snez	a0,a0
    80004128:	0025151b          	slliw	a0,a0,0x2
    8000412c:	9bed                	andi	a5,a5,-5
    8000412e:	8fc9                	or	a5,a5,a0
    80004130:	22f72423          	sw	a5,552(a4)
    80004134:	8082                	ret

0000000080004136 <alsaqr_periph_padframe_periphs_pad_gpio_d_03_cfg_puen_get>:
    80004136:	1a1047b7          	lui	a5,0x1a104
    8000413a:	2287a503          	lw	a0,552(a5) # 1a104228 <_tbss_end+0x1a104228>
    8000413e:	0025551b          	srliw	a0,a0,0x2
    80004142:	8905                	andi	a0,a0,1
    80004144:	8082                	ret

0000000080004146 <alsaqr_periph_padframe_periphs_pad_gpio_d_03_mux_set>:
    80004146:	890d                	andi	a0,a0,3
    80004148:	1a1047b7          	lui	a5,0x1a104
    8000414c:	22a7a623          	sw	a0,556(a5) # 1a10422c <_tbss_end+0x1a10422c>
    80004150:	8082                	ret

0000000080004152 <alsaqr_periph_padframe_periphs_pad_gpio_d_03_mux_get>:
    80004152:	1a1047b7          	lui	a5,0x1a104
    80004156:	22c7a503          	lw	a0,556(a5) # 1a10422c <_tbss_end+0x1a10422c>
    8000415a:	890d                	andi	a0,a0,3
    8000415c:	8082                	ret

000000008000415e <alsaqr_periph_padframe_periphs_pad_gpio_d_04_cfg_chip2pad_set>:
    8000415e:	1a104737          	lui	a4,0x1a104
    80004162:	23072783          	lw	a5,560(a4) # 1a104230 <_tbss_end+0x1a104230>
    80004166:	00a03533          	snez	a0,a0
    8000416a:	9bf9                	andi	a5,a5,-2
    8000416c:	8fc9                	or	a5,a5,a0
    8000416e:	22f72823          	sw	a5,560(a4)
    80004172:	8082                	ret

0000000080004174 <alsaqr_periph_padframe_periphs_pad_gpio_d_04_cfg_chip2pad_get>:
    80004174:	1a1047b7          	lui	a5,0x1a104
    80004178:	2307a503          	lw	a0,560(a5) # 1a104230 <_tbss_end+0x1a104230>
    8000417c:	8905                	andi	a0,a0,1
    8000417e:	8082                	ret

0000000080004180 <alsaqr_periph_padframe_periphs_pad_gpio_d_04_cfg_oen_set>:
    80004180:	1a104737          	lui	a4,0x1a104
    80004184:	23072783          	lw	a5,560(a4) # 1a104230 <_tbss_end+0x1a104230>
    80004188:	00a03533          	snez	a0,a0
    8000418c:	0015151b          	slliw	a0,a0,0x1
    80004190:	9bf5                	andi	a5,a5,-3
    80004192:	8fc9                	or	a5,a5,a0
    80004194:	22f72823          	sw	a5,560(a4)
    80004198:	8082                	ret

000000008000419a <alsaqr_periph_padframe_periphs_pad_gpio_d_04_cfg_oen_get>:
    8000419a:	1a1047b7          	lui	a5,0x1a104
    8000419e:	2307a503          	lw	a0,560(a5) # 1a104230 <_tbss_end+0x1a104230>
    800041a2:	0015551b          	srliw	a0,a0,0x1
    800041a6:	8905                	andi	a0,a0,1
    800041a8:	8082                	ret

00000000800041aa <alsaqr_periph_padframe_periphs_pad_gpio_d_04_cfg_puen_set>:
    800041aa:	1a104737          	lui	a4,0x1a104
    800041ae:	23072783          	lw	a5,560(a4) # 1a104230 <_tbss_end+0x1a104230>
    800041b2:	00a03533          	snez	a0,a0
    800041b6:	0025151b          	slliw	a0,a0,0x2
    800041ba:	9bed                	andi	a5,a5,-5
    800041bc:	8fc9                	or	a5,a5,a0
    800041be:	22f72823          	sw	a5,560(a4)
    800041c2:	8082                	ret

00000000800041c4 <alsaqr_periph_padframe_periphs_pad_gpio_d_04_cfg_puen_get>:
    800041c4:	1a1047b7          	lui	a5,0x1a104
    800041c8:	2307a503          	lw	a0,560(a5) # 1a104230 <_tbss_end+0x1a104230>
    800041cc:	0025551b          	srliw	a0,a0,0x2
    800041d0:	8905                	andi	a0,a0,1
    800041d2:	8082                	ret

00000000800041d4 <alsaqr_periph_padframe_periphs_pad_gpio_d_04_mux_set>:
    800041d4:	890d                	andi	a0,a0,3
    800041d6:	1a1047b7          	lui	a5,0x1a104
    800041da:	22a7aa23          	sw	a0,564(a5) # 1a104234 <_tbss_end+0x1a104234>
    800041de:	8082                	ret

00000000800041e0 <alsaqr_periph_padframe_periphs_pad_gpio_d_04_mux_get>:
    800041e0:	1a1047b7          	lui	a5,0x1a104
    800041e4:	2347a503          	lw	a0,564(a5) # 1a104234 <_tbss_end+0x1a104234>
    800041e8:	890d                	andi	a0,a0,3
    800041ea:	8082                	ret

00000000800041ec <alsaqr_periph_padframe_periphs_pad_gpio_d_05_cfg_chip2pad_set>:
    800041ec:	1a104737          	lui	a4,0x1a104
    800041f0:	23872783          	lw	a5,568(a4) # 1a104238 <_tbss_end+0x1a104238>
    800041f4:	00a03533          	snez	a0,a0
    800041f8:	9bf9                	andi	a5,a5,-2
    800041fa:	8fc9                	or	a5,a5,a0
    800041fc:	22f72c23          	sw	a5,568(a4)
    80004200:	8082                	ret

0000000080004202 <alsaqr_periph_padframe_periphs_pad_gpio_d_05_cfg_chip2pad_get>:
    80004202:	1a1047b7          	lui	a5,0x1a104
    80004206:	2387a503          	lw	a0,568(a5) # 1a104238 <_tbss_end+0x1a104238>
    8000420a:	8905                	andi	a0,a0,1
    8000420c:	8082                	ret

000000008000420e <alsaqr_periph_padframe_periphs_pad_gpio_d_05_cfg_oen_set>:
    8000420e:	1a104737          	lui	a4,0x1a104
    80004212:	23872783          	lw	a5,568(a4) # 1a104238 <_tbss_end+0x1a104238>
    80004216:	00a03533          	snez	a0,a0
    8000421a:	0015151b          	slliw	a0,a0,0x1
    8000421e:	9bf5                	andi	a5,a5,-3
    80004220:	8fc9                	or	a5,a5,a0
    80004222:	22f72c23          	sw	a5,568(a4)
    80004226:	8082                	ret

0000000080004228 <alsaqr_periph_padframe_periphs_pad_gpio_d_05_cfg_oen_get>:
    80004228:	1a1047b7          	lui	a5,0x1a104
    8000422c:	2387a503          	lw	a0,568(a5) # 1a104238 <_tbss_end+0x1a104238>
    80004230:	0015551b          	srliw	a0,a0,0x1
    80004234:	8905                	andi	a0,a0,1
    80004236:	8082                	ret

0000000080004238 <alsaqr_periph_padframe_periphs_pad_gpio_d_05_cfg_puen_set>:
    80004238:	1a104737          	lui	a4,0x1a104
    8000423c:	23872783          	lw	a5,568(a4) # 1a104238 <_tbss_end+0x1a104238>
    80004240:	00a03533          	snez	a0,a0
    80004244:	0025151b          	slliw	a0,a0,0x2
    80004248:	9bed                	andi	a5,a5,-5
    8000424a:	8fc9                	or	a5,a5,a0
    8000424c:	22f72c23          	sw	a5,568(a4)
    80004250:	8082                	ret

0000000080004252 <alsaqr_periph_padframe_periphs_pad_gpio_d_05_cfg_puen_get>:
    80004252:	1a1047b7          	lui	a5,0x1a104
    80004256:	2387a503          	lw	a0,568(a5) # 1a104238 <_tbss_end+0x1a104238>
    8000425a:	0025551b          	srliw	a0,a0,0x2
    8000425e:	8905                	andi	a0,a0,1
    80004260:	8082                	ret

0000000080004262 <alsaqr_periph_padframe_periphs_pad_gpio_d_05_mux_set>:
    80004262:	890d                	andi	a0,a0,3
    80004264:	1a1047b7          	lui	a5,0x1a104
    80004268:	22a7ae23          	sw	a0,572(a5) # 1a10423c <_tbss_end+0x1a10423c>
    8000426c:	8082                	ret

000000008000426e <alsaqr_periph_padframe_periphs_pad_gpio_d_05_mux_get>:
    8000426e:	1a1047b7          	lui	a5,0x1a104
    80004272:	23c7a503          	lw	a0,572(a5) # 1a10423c <_tbss_end+0x1a10423c>
    80004276:	890d                	andi	a0,a0,3
    80004278:	8082                	ret

000000008000427a <alsaqr_periph_padframe_periphs_pad_gpio_d_06_cfg_chip2pad_set>:
    8000427a:	1a104737          	lui	a4,0x1a104
    8000427e:	24072783          	lw	a5,576(a4) # 1a104240 <_tbss_end+0x1a104240>
    80004282:	00a03533          	snez	a0,a0
    80004286:	9bf9                	andi	a5,a5,-2
    80004288:	8fc9                	or	a5,a5,a0
    8000428a:	24f72023          	sw	a5,576(a4)
    8000428e:	8082                	ret

0000000080004290 <alsaqr_periph_padframe_periphs_pad_gpio_d_06_cfg_chip2pad_get>:
    80004290:	1a1047b7          	lui	a5,0x1a104
    80004294:	2407a503          	lw	a0,576(a5) # 1a104240 <_tbss_end+0x1a104240>
    80004298:	8905                	andi	a0,a0,1
    8000429a:	8082                	ret

000000008000429c <alsaqr_periph_padframe_periphs_pad_gpio_d_06_cfg_oen_set>:
    8000429c:	1a104737          	lui	a4,0x1a104
    800042a0:	24072783          	lw	a5,576(a4) # 1a104240 <_tbss_end+0x1a104240>
    800042a4:	00a03533          	snez	a0,a0
    800042a8:	0015151b          	slliw	a0,a0,0x1
    800042ac:	9bf5                	andi	a5,a5,-3
    800042ae:	8fc9                	or	a5,a5,a0
    800042b0:	24f72023          	sw	a5,576(a4)
    800042b4:	8082                	ret

00000000800042b6 <alsaqr_periph_padframe_periphs_pad_gpio_d_06_cfg_oen_get>:
    800042b6:	1a1047b7          	lui	a5,0x1a104
    800042ba:	2407a503          	lw	a0,576(a5) # 1a104240 <_tbss_end+0x1a104240>
    800042be:	0015551b          	srliw	a0,a0,0x1
    800042c2:	8905                	andi	a0,a0,1
    800042c4:	8082                	ret

00000000800042c6 <alsaqr_periph_padframe_periphs_pad_gpio_d_06_cfg_puen_set>:
    800042c6:	1a104737          	lui	a4,0x1a104
    800042ca:	24072783          	lw	a5,576(a4) # 1a104240 <_tbss_end+0x1a104240>
    800042ce:	00a03533          	snez	a0,a0
    800042d2:	0025151b          	slliw	a0,a0,0x2
    800042d6:	9bed                	andi	a5,a5,-5
    800042d8:	8fc9                	or	a5,a5,a0
    800042da:	24f72023          	sw	a5,576(a4)
    800042de:	8082                	ret

00000000800042e0 <alsaqr_periph_padframe_periphs_pad_gpio_d_06_cfg_puen_get>:
    800042e0:	1a1047b7          	lui	a5,0x1a104
    800042e4:	2407a503          	lw	a0,576(a5) # 1a104240 <_tbss_end+0x1a104240>
    800042e8:	0025551b          	srliw	a0,a0,0x2
    800042ec:	8905                	andi	a0,a0,1
    800042ee:	8082                	ret

00000000800042f0 <alsaqr_periph_padframe_periphs_pad_gpio_d_06_mux_set>:
    800042f0:	890d                	andi	a0,a0,3
    800042f2:	1a1047b7          	lui	a5,0x1a104
    800042f6:	24a7a223          	sw	a0,580(a5) # 1a104244 <_tbss_end+0x1a104244>
    800042fa:	8082                	ret

00000000800042fc <alsaqr_periph_padframe_periphs_pad_gpio_d_06_mux_get>:
    800042fc:	1a1047b7          	lui	a5,0x1a104
    80004300:	2447a503          	lw	a0,580(a5) # 1a104244 <_tbss_end+0x1a104244>
    80004304:	890d                	andi	a0,a0,3
    80004306:	8082                	ret

0000000080004308 <alsaqr_periph_padframe_periphs_pad_gpio_d_07_cfg_chip2pad_set>:
    80004308:	1a104737          	lui	a4,0x1a104
    8000430c:	24872783          	lw	a5,584(a4) # 1a104248 <_tbss_end+0x1a104248>
    80004310:	00a03533          	snez	a0,a0
    80004314:	9bf9                	andi	a5,a5,-2
    80004316:	8fc9                	or	a5,a5,a0
    80004318:	24f72423          	sw	a5,584(a4)
    8000431c:	8082                	ret

000000008000431e <alsaqr_periph_padframe_periphs_pad_gpio_d_07_cfg_chip2pad_get>:
    8000431e:	1a1047b7          	lui	a5,0x1a104
    80004322:	2487a503          	lw	a0,584(a5) # 1a104248 <_tbss_end+0x1a104248>
    80004326:	8905                	andi	a0,a0,1
    80004328:	8082                	ret

000000008000432a <alsaqr_periph_padframe_periphs_pad_gpio_d_07_cfg_oen_set>:
    8000432a:	1a104737          	lui	a4,0x1a104
    8000432e:	24872783          	lw	a5,584(a4) # 1a104248 <_tbss_end+0x1a104248>
    80004332:	00a03533          	snez	a0,a0
    80004336:	0015151b          	slliw	a0,a0,0x1
    8000433a:	9bf5                	andi	a5,a5,-3
    8000433c:	8fc9                	or	a5,a5,a0
    8000433e:	24f72423          	sw	a5,584(a4)
    80004342:	8082                	ret

0000000080004344 <alsaqr_periph_padframe_periphs_pad_gpio_d_07_cfg_oen_get>:
    80004344:	1a1047b7          	lui	a5,0x1a104
    80004348:	2487a503          	lw	a0,584(a5) # 1a104248 <_tbss_end+0x1a104248>
    8000434c:	0015551b          	srliw	a0,a0,0x1
    80004350:	8905                	andi	a0,a0,1
    80004352:	8082                	ret

0000000080004354 <alsaqr_periph_padframe_periphs_pad_gpio_d_07_cfg_puen_set>:
    80004354:	1a104737          	lui	a4,0x1a104
    80004358:	24872783          	lw	a5,584(a4) # 1a104248 <_tbss_end+0x1a104248>
    8000435c:	00a03533          	snez	a0,a0
    80004360:	0025151b          	slliw	a0,a0,0x2
    80004364:	9bed                	andi	a5,a5,-5
    80004366:	8fc9                	or	a5,a5,a0
    80004368:	24f72423          	sw	a5,584(a4)
    8000436c:	8082                	ret

000000008000436e <alsaqr_periph_padframe_periphs_pad_gpio_d_07_cfg_puen_get>:
    8000436e:	1a1047b7          	lui	a5,0x1a104
    80004372:	2487a503          	lw	a0,584(a5) # 1a104248 <_tbss_end+0x1a104248>
    80004376:	0025551b          	srliw	a0,a0,0x2
    8000437a:	8905                	andi	a0,a0,1
    8000437c:	8082                	ret

000000008000437e <alsaqr_periph_padframe_periphs_pad_gpio_d_07_mux_set>:
    8000437e:	890d                	andi	a0,a0,3
    80004380:	1a1047b7          	lui	a5,0x1a104
    80004384:	24a7a623          	sw	a0,588(a5) # 1a10424c <_tbss_end+0x1a10424c>
    80004388:	8082                	ret

000000008000438a <alsaqr_periph_padframe_periphs_pad_gpio_d_07_mux_get>:
    8000438a:	1a1047b7          	lui	a5,0x1a104
    8000438e:	24c7a503          	lw	a0,588(a5) # 1a10424c <_tbss_end+0x1a10424c>
    80004392:	890d                	andi	a0,a0,3
    80004394:	8082                	ret

0000000080004396 <alsaqr_periph_padframe_periphs_pad_gpio_d_08_cfg_chip2pad_set>:
    80004396:	1a104737          	lui	a4,0x1a104
    8000439a:	25072783          	lw	a5,592(a4) # 1a104250 <_tbss_end+0x1a104250>
    8000439e:	00a03533          	snez	a0,a0
    800043a2:	9bf9                	andi	a5,a5,-2
    800043a4:	8fc9                	or	a5,a5,a0
    800043a6:	24f72823          	sw	a5,592(a4)
    800043aa:	8082                	ret

00000000800043ac <alsaqr_periph_padframe_periphs_pad_gpio_d_08_cfg_chip2pad_get>:
    800043ac:	1a1047b7          	lui	a5,0x1a104
    800043b0:	2507a503          	lw	a0,592(a5) # 1a104250 <_tbss_end+0x1a104250>
    800043b4:	8905                	andi	a0,a0,1
    800043b6:	8082                	ret

00000000800043b8 <alsaqr_periph_padframe_periphs_pad_gpio_d_08_cfg_oen_set>:
    800043b8:	1a104737          	lui	a4,0x1a104
    800043bc:	25072783          	lw	a5,592(a4) # 1a104250 <_tbss_end+0x1a104250>
    800043c0:	00a03533          	snez	a0,a0
    800043c4:	0015151b          	slliw	a0,a0,0x1
    800043c8:	9bf5                	andi	a5,a5,-3
    800043ca:	8fc9                	or	a5,a5,a0
    800043cc:	24f72823          	sw	a5,592(a4)
    800043d0:	8082                	ret

00000000800043d2 <alsaqr_periph_padframe_periphs_pad_gpio_d_08_cfg_oen_get>:
    800043d2:	1a1047b7          	lui	a5,0x1a104
    800043d6:	2507a503          	lw	a0,592(a5) # 1a104250 <_tbss_end+0x1a104250>
    800043da:	0015551b          	srliw	a0,a0,0x1
    800043de:	8905                	andi	a0,a0,1
    800043e0:	8082                	ret

00000000800043e2 <alsaqr_periph_padframe_periphs_pad_gpio_d_08_cfg_puen_set>:
    800043e2:	1a104737          	lui	a4,0x1a104
    800043e6:	25072783          	lw	a5,592(a4) # 1a104250 <_tbss_end+0x1a104250>
    800043ea:	00a03533          	snez	a0,a0
    800043ee:	0025151b          	slliw	a0,a0,0x2
    800043f2:	9bed                	andi	a5,a5,-5
    800043f4:	8fc9                	or	a5,a5,a0
    800043f6:	24f72823          	sw	a5,592(a4)
    800043fa:	8082                	ret

00000000800043fc <alsaqr_periph_padframe_periphs_pad_gpio_d_08_cfg_puen_get>:
    800043fc:	1a1047b7          	lui	a5,0x1a104
    80004400:	2507a503          	lw	a0,592(a5) # 1a104250 <_tbss_end+0x1a104250>
    80004404:	0025551b          	srliw	a0,a0,0x2
    80004408:	8905                	andi	a0,a0,1
    8000440a:	8082                	ret

000000008000440c <alsaqr_periph_padframe_periphs_pad_gpio_d_08_mux_set>:
    8000440c:	8905                	andi	a0,a0,1
    8000440e:	1a1047b7          	lui	a5,0x1a104
    80004412:	24a7aa23          	sw	a0,596(a5) # 1a104254 <_tbss_end+0x1a104254>
    80004416:	8082                	ret

0000000080004418 <alsaqr_periph_padframe_periphs_pad_gpio_d_08_mux_get>:
    80004418:	1a1047b7          	lui	a5,0x1a104
    8000441c:	2547a503          	lw	a0,596(a5) # 1a104254 <_tbss_end+0x1a104254>
    80004420:	8905                	andi	a0,a0,1
    80004422:	8082                	ret

0000000080004424 <alsaqr_periph_padframe_periphs_pad_gpio_d_09_cfg_chip2pad_set>:
    80004424:	1a104737          	lui	a4,0x1a104
    80004428:	25872783          	lw	a5,600(a4) # 1a104258 <_tbss_end+0x1a104258>
    8000442c:	00a03533          	snez	a0,a0
    80004430:	9bf9                	andi	a5,a5,-2
    80004432:	8fc9                	or	a5,a5,a0
    80004434:	24f72c23          	sw	a5,600(a4)
    80004438:	8082                	ret

000000008000443a <alsaqr_periph_padframe_periphs_pad_gpio_d_09_cfg_chip2pad_get>:
    8000443a:	1a1047b7          	lui	a5,0x1a104
    8000443e:	2587a503          	lw	a0,600(a5) # 1a104258 <_tbss_end+0x1a104258>
    80004442:	8905                	andi	a0,a0,1
    80004444:	8082                	ret

0000000080004446 <alsaqr_periph_padframe_periphs_pad_gpio_d_09_cfg_oen_set>:
    80004446:	1a104737          	lui	a4,0x1a104
    8000444a:	25872783          	lw	a5,600(a4) # 1a104258 <_tbss_end+0x1a104258>
    8000444e:	00a03533          	snez	a0,a0
    80004452:	0015151b          	slliw	a0,a0,0x1
    80004456:	9bf5                	andi	a5,a5,-3
    80004458:	8fc9                	or	a5,a5,a0
    8000445a:	24f72c23          	sw	a5,600(a4)
    8000445e:	8082                	ret

0000000080004460 <alsaqr_periph_padframe_periphs_pad_gpio_d_09_cfg_oen_get>:
    80004460:	1a1047b7          	lui	a5,0x1a104
    80004464:	2587a503          	lw	a0,600(a5) # 1a104258 <_tbss_end+0x1a104258>
    80004468:	0015551b          	srliw	a0,a0,0x1
    8000446c:	8905                	andi	a0,a0,1
    8000446e:	8082                	ret

0000000080004470 <alsaqr_periph_padframe_periphs_pad_gpio_d_09_cfg_puen_set>:
    80004470:	1a104737          	lui	a4,0x1a104
    80004474:	25872783          	lw	a5,600(a4) # 1a104258 <_tbss_end+0x1a104258>
    80004478:	00a03533          	snez	a0,a0
    8000447c:	0025151b          	slliw	a0,a0,0x2
    80004480:	9bed                	andi	a5,a5,-5
    80004482:	8fc9                	or	a5,a5,a0
    80004484:	24f72c23          	sw	a5,600(a4)
    80004488:	8082                	ret

000000008000448a <alsaqr_periph_padframe_periphs_pad_gpio_d_09_cfg_puen_get>:
    8000448a:	1a1047b7          	lui	a5,0x1a104
    8000448e:	2587a503          	lw	a0,600(a5) # 1a104258 <_tbss_end+0x1a104258>
    80004492:	0025551b          	srliw	a0,a0,0x2
    80004496:	8905                	andi	a0,a0,1
    80004498:	8082                	ret

000000008000449a <alsaqr_periph_padframe_periphs_pad_gpio_d_09_mux_set>:
    8000449a:	8905                	andi	a0,a0,1
    8000449c:	1a1047b7          	lui	a5,0x1a104
    800044a0:	24a7ae23          	sw	a0,604(a5) # 1a10425c <_tbss_end+0x1a10425c>
    800044a4:	8082                	ret

00000000800044a6 <alsaqr_periph_padframe_periphs_pad_gpio_d_09_mux_get>:
    800044a6:	1a1047b7          	lui	a5,0x1a104
    800044aa:	25c7a503          	lw	a0,604(a5) # 1a10425c <_tbss_end+0x1a10425c>
    800044ae:	8905                	andi	a0,a0,1
    800044b0:	8082                	ret

00000000800044b2 <alsaqr_periph_padframe_periphs_pad_gpio_d_10_cfg_chip2pad_set>:
    800044b2:	1a104737          	lui	a4,0x1a104
    800044b6:	26072783          	lw	a5,608(a4) # 1a104260 <_tbss_end+0x1a104260>
    800044ba:	00a03533          	snez	a0,a0
    800044be:	9bf9                	andi	a5,a5,-2
    800044c0:	8fc9                	or	a5,a5,a0
    800044c2:	26f72023          	sw	a5,608(a4)
    800044c6:	8082                	ret

00000000800044c8 <alsaqr_periph_padframe_periphs_pad_gpio_d_10_cfg_chip2pad_get>:
    800044c8:	1a1047b7          	lui	a5,0x1a104
    800044cc:	2607a503          	lw	a0,608(a5) # 1a104260 <_tbss_end+0x1a104260>
    800044d0:	8905                	andi	a0,a0,1
    800044d2:	8082                	ret

00000000800044d4 <alsaqr_periph_padframe_periphs_pad_gpio_d_10_cfg_oen_set>:
    800044d4:	1a104737          	lui	a4,0x1a104
    800044d8:	26072783          	lw	a5,608(a4) # 1a104260 <_tbss_end+0x1a104260>
    800044dc:	00a03533          	snez	a0,a0
    800044e0:	0015151b          	slliw	a0,a0,0x1
    800044e4:	9bf5                	andi	a5,a5,-3
    800044e6:	8fc9                	or	a5,a5,a0
    800044e8:	26f72023          	sw	a5,608(a4)
    800044ec:	8082                	ret

00000000800044ee <alsaqr_periph_padframe_periphs_pad_gpio_d_10_cfg_oen_get>:
    800044ee:	1a1047b7          	lui	a5,0x1a104
    800044f2:	2607a503          	lw	a0,608(a5) # 1a104260 <_tbss_end+0x1a104260>
    800044f6:	0015551b          	srliw	a0,a0,0x1
    800044fa:	8905                	andi	a0,a0,1
    800044fc:	8082                	ret

00000000800044fe <alsaqr_periph_padframe_periphs_pad_gpio_d_10_cfg_puen_set>:
    800044fe:	1a104737          	lui	a4,0x1a104
    80004502:	26072783          	lw	a5,608(a4) # 1a104260 <_tbss_end+0x1a104260>
    80004506:	00a03533          	snez	a0,a0
    8000450a:	0025151b          	slliw	a0,a0,0x2
    8000450e:	9bed                	andi	a5,a5,-5
    80004510:	8fc9                	or	a5,a5,a0
    80004512:	26f72023          	sw	a5,608(a4)
    80004516:	8082                	ret

0000000080004518 <alsaqr_periph_padframe_periphs_pad_gpio_d_10_cfg_puen_get>:
    80004518:	1a1047b7          	lui	a5,0x1a104
    8000451c:	2607a503          	lw	a0,608(a5) # 1a104260 <_tbss_end+0x1a104260>
    80004520:	0025551b          	srliw	a0,a0,0x2
    80004524:	8905                	andi	a0,a0,1
    80004526:	8082                	ret

0000000080004528 <alsaqr_periph_padframe_periphs_pad_gpio_d_10_mux_set>:
    80004528:	8905                	andi	a0,a0,1
    8000452a:	1a1047b7          	lui	a5,0x1a104
    8000452e:	26a7a223          	sw	a0,612(a5) # 1a104264 <_tbss_end+0x1a104264>
    80004532:	8082                	ret

0000000080004534 <alsaqr_periph_padframe_periphs_pad_gpio_d_10_mux_get>:
    80004534:	1a1047b7          	lui	a5,0x1a104
    80004538:	2647a503          	lw	a0,612(a5) # 1a104264 <_tbss_end+0x1a104264>
    8000453c:	8905                	andi	a0,a0,1
    8000453e:	8082                	ret

0000000080004540 <alsaqr_periph_padframe_periphs_pad_gpio_e_00_cfg_chip2pad_set>:
    80004540:	1a104737          	lui	a4,0x1a104
    80004544:	26872783          	lw	a5,616(a4) # 1a104268 <_tbss_end+0x1a104268>
    80004548:	00a03533          	snez	a0,a0
    8000454c:	9bf9                	andi	a5,a5,-2
    8000454e:	8fc9                	or	a5,a5,a0
    80004550:	26f72423          	sw	a5,616(a4)
    80004554:	8082                	ret

0000000080004556 <alsaqr_periph_padframe_periphs_pad_gpio_e_00_cfg_chip2pad_get>:
    80004556:	1a1047b7          	lui	a5,0x1a104
    8000455a:	2687a503          	lw	a0,616(a5) # 1a104268 <_tbss_end+0x1a104268>
    8000455e:	8905                	andi	a0,a0,1
    80004560:	8082                	ret

0000000080004562 <alsaqr_periph_padframe_periphs_pad_gpio_e_00_cfg_oen_set>:
    80004562:	1a104737          	lui	a4,0x1a104
    80004566:	26872783          	lw	a5,616(a4) # 1a104268 <_tbss_end+0x1a104268>
    8000456a:	00a03533          	snez	a0,a0
    8000456e:	0015151b          	slliw	a0,a0,0x1
    80004572:	9bf5                	andi	a5,a5,-3
    80004574:	8fc9                	or	a5,a5,a0
    80004576:	26f72423          	sw	a5,616(a4)
    8000457a:	8082                	ret

000000008000457c <alsaqr_periph_padframe_periphs_pad_gpio_e_00_cfg_oen_get>:
    8000457c:	1a1047b7          	lui	a5,0x1a104
    80004580:	2687a503          	lw	a0,616(a5) # 1a104268 <_tbss_end+0x1a104268>
    80004584:	0015551b          	srliw	a0,a0,0x1
    80004588:	8905                	andi	a0,a0,1
    8000458a:	8082                	ret

000000008000458c <alsaqr_periph_padframe_periphs_pad_gpio_e_00_cfg_puen_set>:
    8000458c:	1a104737          	lui	a4,0x1a104
    80004590:	26872783          	lw	a5,616(a4) # 1a104268 <_tbss_end+0x1a104268>
    80004594:	00a03533          	snez	a0,a0
    80004598:	0025151b          	slliw	a0,a0,0x2
    8000459c:	9bed                	andi	a5,a5,-5
    8000459e:	8fc9                	or	a5,a5,a0
    800045a0:	26f72423          	sw	a5,616(a4)
    800045a4:	8082                	ret

00000000800045a6 <alsaqr_periph_padframe_periphs_pad_gpio_e_00_cfg_puen_get>:
    800045a6:	1a1047b7          	lui	a5,0x1a104
    800045aa:	2687a503          	lw	a0,616(a5) # 1a104268 <_tbss_end+0x1a104268>
    800045ae:	0025551b          	srliw	a0,a0,0x2
    800045b2:	8905                	andi	a0,a0,1
    800045b4:	8082                	ret

00000000800045b6 <alsaqr_periph_padframe_periphs_pad_gpio_e_00_mux_set>:
    800045b6:	890d                	andi	a0,a0,3
    800045b8:	1a1047b7          	lui	a5,0x1a104
    800045bc:	26a7a623          	sw	a0,620(a5) # 1a10426c <_tbss_end+0x1a10426c>
    800045c0:	8082                	ret

00000000800045c2 <alsaqr_periph_padframe_periphs_pad_gpio_e_00_mux_get>:
    800045c2:	1a1047b7          	lui	a5,0x1a104
    800045c6:	26c7a503          	lw	a0,620(a5) # 1a10426c <_tbss_end+0x1a10426c>
    800045ca:	890d                	andi	a0,a0,3
    800045cc:	8082                	ret

00000000800045ce <alsaqr_periph_padframe_periphs_pad_gpio_e_01_cfg_chip2pad_set>:
    800045ce:	1a104737          	lui	a4,0x1a104
    800045d2:	27072783          	lw	a5,624(a4) # 1a104270 <_tbss_end+0x1a104270>
    800045d6:	00a03533          	snez	a0,a0
    800045da:	9bf9                	andi	a5,a5,-2
    800045dc:	8fc9                	or	a5,a5,a0
    800045de:	26f72823          	sw	a5,624(a4)
    800045e2:	8082                	ret

00000000800045e4 <alsaqr_periph_padframe_periphs_pad_gpio_e_01_cfg_chip2pad_get>:
    800045e4:	1a1047b7          	lui	a5,0x1a104
    800045e8:	2707a503          	lw	a0,624(a5) # 1a104270 <_tbss_end+0x1a104270>
    800045ec:	8905                	andi	a0,a0,1
    800045ee:	8082                	ret

00000000800045f0 <alsaqr_periph_padframe_periphs_pad_gpio_e_01_cfg_oen_set>:
    800045f0:	1a104737          	lui	a4,0x1a104
    800045f4:	27072783          	lw	a5,624(a4) # 1a104270 <_tbss_end+0x1a104270>
    800045f8:	00a03533          	snez	a0,a0
    800045fc:	0015151b          	slliw	a0,a0,0x1
    80004600:	9bf5                	andi	a5,a5,-3
    80004602:	8fc9                	or	a5,a5,a0
    80004604:	26f72823          	sw	a5,624(a4)
    80004608:	8082                	ret

000000008000460a <alsaqr_periph_padframe_periphs_pad_gpio_e_01_cfg_oen_get>:
    8000460a:	1a1047b7          	lui	a5,0x1a104
    8000460e:	2707a503          	lw	a0,624(a5) # 1a104270 <_tbss_end+0x1a104270>
    80004612:	0015551b          	srliw	a0,a0,0x1
    80004616:	8905                	andi	a0,a0,1
    80004618:	8082                	ret

000000008000461a <alsaqr_periph_padframe_periphs_pad_gpio_e_01_cfg_puen_set>:
    8000461a:	1a104737          	lui	a4,0x1a104
    8000461e:	27072783          	lw	a5,624(a4) # 1a104270 <_tbss_end+0x1a104270>
    80004622:	00a03533          	snez	a0,a0
    80004626:	0025151b          	slliw	a0,a0,0x2
    8000462a:	9bed                	andi	a5,a5,-5
    8000462c:	8fc9                	or	a5,a5,a0
    8000462e:	26f72823          	sw	a5,624(a4)
    80004632:	8082                	ret

0000000080004634 <alsaqr_periph_padframe_periphs_pad_gpio_e_01_cfg_puen_get>:
    80004634:	1a1047b7          	lui	a5,0x1a104
    80004638:	2707a503          	lw	a0,624(a5) # 1a104270 <_tbss_end+0x1a104270>
    8000463c:	0025551b          	srliw	a0,a0,0x2
    80004640:	8905                	andi	a0,a0,1
    80004642:	8082                	ret

0000000080004644 <alsaqr_periph_padframe_periphs_pad_gpio_e_01_mux_set>:
    80004644:	890d                	andi	a0,a0,3
    80004646:	1a1047b7          	lui	a5,0x1a104
    8000464a:	26a7aa23          	sw	a0,628(a5) # 1a104274 <_tbss_end+0x1a104274>
    8000464e:	8082                	ret

0000000080004650 <alsaqr_periph_padframe_periphs_pad_gpio_e_01_mux_get>:
    80004650:	1a1047b7          	lui	a5,0x1a104
    80004654:	2747a503          	lw	a0,628(a5) # 1a104274 <_tbss_end+0x1a104274>
    80004658:	890d                	andi	a0,a0,3
    8000465a:	8082                	ret

000000008000465c <alsaqr_periph_padframe_periphs_pad_gpio_e_02_cfg_chip2pad_set>:
    8000465c:	1a104737          	lui	a4,0x1a104
    80004660:	27872783          	lw	a5,632(a4) # 1a104278 <_tbss_end+0x1a104278>
    80004664:	00a03533          	snez	a0,a0
    80004668:	9bf9                	andi	a5,a5,-2
    8000466a:	8fc9                	or	a5,a5,a0
    8000466c:	26f72c23          	sw	a5,632(a4)
    80004670:	8082                	ret

0000000080004672 <alsaqr_periph_padframe_periphs_pad_gpio_e_02_cfg_chip2pad_get>:
    80004672:	1a1047b7          	lui	a5,0x1a104
    80004676:	2787a503          	lw	a0,632(a5) # 1a104278 <_tbss_end+0x1a104278>
    8000467a:	8905                	andi	a0,a0,1
    8000467c:	8082                	ret

000000008000467e <alsaqr_periph_padframe_periphs_pad_gpio_e_02_cfg_oen_set>:
    8000467e:	1a104737          	lui	a4,0x1a104
    80004682:	27872783          	lw	a5,632(a4) # 1a104278 <_tbss_end+0x1a104278>
    80004686:	00a03533          	snez	a0,a0
    8000468a:	0015151b          	slliw	a0,a0,0x1
    8000468e:	9bf5                	andi	a5,a5,-3
    80004690:	8fc9                	or	a5,a5,a0
    80004692:	26f72c23          	sw	a5,632(a4)
    80004696:	8082                	ret

0000000080004698 <alsaqr_periph_padframe_periphs_pad_gpio_e_02_cfg_oen_get>:
    80004698:	1a1047b7          	lui	a5,0x1a104
    8000469c:	2787a503          	lw	a0,632(a5) # 1a104278 <_tbss_end+0x1a104278>
    800046a0:	0015551b          	srliw	a0,a0,0x1
    800046a4:	8905                	andi	a0,a0,1
    800046a6:	8082                	ret

00000000800046a8 <alsaqr_periph_padframe_periphs_pad_gpio_e_02_cfg_puen_set>:
    800046a8:	1a104737          	lui	a4,0x1a104
    800046ac:	27872783          	lw	a5,632(a4) # 1a104278 <_tbss_end+0x1a104278>
    800046b0:	00a03533          	snez	a0,a0
    800046b4:	0025151b          	slliw	a0,a0,0x2
    800046b8:	9bed                	andi	a5,a5,-5
    800046ba:	8fc9                	or	a5,a5,a0
    800046bc:	26f72c23          	sw	a5,632(a4)
    800046c0:	8082                	ret

00000000800046c2 <alsaqr_periph_padframe_periphs_pad_gpio_e_02_cfg_puen_get>:
    800046c2:	1a1047b7          	lui	a5,0x1a104
    800046c6:	2787a503          	lw	a0,632(a5) # 1a104278 <_tbss_end+0x1a104278>
    800046ca:	0025551b          	srliw	a0,a0,0x2
    800046ce:	8905                	andi	a0,a0,1
    800046d0:	8082                	ret

00000000800046d2 <alsaqr_periph_padframe_periphs_pad_gpio_e_02_mux_set>:
    800046d2:	890d                	andi	a0,a0,3
    800046d4:	1a1047b7          	lui	a5,0x1a104
    800046d8:	26a7ae23          	sw	a0,636(a5) # 1a10427c <_tbss_end+0x1a10427c>
    800046dc:	8082                	ret

00000000800046de <alsaqr_periph_padframe_periphs_pad_gpio_e_02_mux_get>:
    800046de:	1a1047b7          	lui	a5,0x1a104
    800046e2:	27c7a503          	lw	a0,636(a5) # 1a10427c <_tbss_end+0x1a10427c>
    800046e6:	890d                	andi	a0,a0,3
    800046e8:	8082                	ret

00000000800046ea <alsaqr_periph_padframe_periphs_pad_gpio_e_03_cfg_chip2pad_set>:
    800046ea:	1a104737          	lui	a4,0x1a104
    800046ee:	28072783          	lw	a5,640(a4) # 1a104280 <_tbss_end+0x1a104280>
    800046f2:	00a03533          	snez	a0,a0
    800046f6:	9bf9                	andi	a5,a5,-2
    800046f8:	8fc9                	or	a5,a5,a0
    800046fa:	28f72023          	sw	a5,640(a4)
    800046fe:	8082                	ret

0000000080004700 <alsaqr_periph_padframe_periphs_pad_gpio_e_03_cfg_chip2pad_get>:
    80004700:	1a1047b7          	lui	a5,0x1a104
    80004704:	2807a503          	lw	a0,640(a5) # 1a104280 <_tbss_end+0x1a104280>
    80004708:	8905                	andi	a0,a0,1
    8000470a:	8082                	ret

000000008000470c <alsaqr_periph_padframe_periphs_pad_gpio_e_03_cfg_oen_set>:
    8000470c:	1a104737          	lui	a4,0x1a104
    80004710:	28072783          	lw	a5,640(a4) # 1a104280 <_tbss_end+0x1a104280>
    80004714:	00a03533          	snez	a0,a0
    80004718:	0015151b          	slliw	a0,a0,0x1
    8000471c:	9bf5                	andi	a5,a5,-3
    8000471e:	8fc9                	or	a5,a5,a0
    80004720:	28f72023          	sw	a5,640(a4)
    80004724:	8082                	ret

0000000080004726 <alsaqr_periph_padframe_periphs_pad_gpio_e_03_cfg_oen_get>:
    80004726:	1a1047b7          	lui	a5,0x1a104
    8000472a:	2807a503          	lw	a0,640(a5) # 1a104280 <_tbss_end+0x1a104280>
    8000472e:	0015551b          	srliw	a0,a0,0x1
    80004732:	8905                	andi	a0,a0,1
    80004734:	8082                	ret

0000000080004736 <alsaqr_periph_padframe_periphs_pad_gpio_e_03_cfg_puen_set>:
    80004736:	1a104737          	lui	a4,0x1a104
    8000473a:	28072783          	lw	a5,640(a4) # 1a104280 <_tbss_end+0x1a104280>
    8000473e:	00a03533          	snez	a0,a0
    80004742:	0025151b          	slliw	a0,a0,0x2
    80004746:	9bed                	andi	a5,a5,-5
    80004748:	8fc9                	or	a5,a5,a0
    8000474a:	28f72023          	sw	a5,640(a4)
    8000474e:	8082                	ret

0000000080004750 <alsaqr_periph_padframe_periphs_pad_gpio_e_03_cfg_puen_get>:
    80004750:	1a1047b7          	lui	a5,0x1a104
    80004754:	2807a503          	lw	a0,640(a5) # 1a104280 <_tbss_end+0x1a104280>
    80004758:	0025551b          	srliw	a0,a0,0x2
    8000475c:	8905                	andi	a0,a0,1
    8000475e:	8082                	ret

0000000080004760 <alsaqr_periph_padframe_periphs_pad_gpio_e_03_mux_set>:
    80004760:	890d                	andi	a0,a0,3
    80004762:	1a1047b7          	lui	a5,0x1a104
    80004766:	28a7a223          	sw	a0,644(a5) # 1a104284 <_tbss_end+0x1a104284>
    8000476a:	8082                	ret

000000008000476c <alsaqr_periph_padframe_periphs_pad_gpio_e_03_mux_get>:
    8000476c:	1a1047b7          	lui	a5,0x1a104
    80004770:	2847a503          	lw	a0,644(a5) # 1a104284 <_tbss_end+0x1a104284>
    80004774:	890d                	andi	a0,a0,3
    80004776:	8082                	ret

0000000080004778 <alsaqr_periph_padframe_periphs_pad_gpio_e_04_cfg_chip2pad_set>:
    80004778:	1a104737          	lui	a4,0x1a104
    8000477c:	28872783          	lw	a5,648(a4) # 1a104288 <_tbss_end+0x1a104288>
    80004780:	00a03533          	snez	a0,a0
    80004784:	9bf9                	andi	a5,a5,-2
    80004786:	8fc9                	or	a5,a5,a0
    80004788:	28f72423          	sw	a5,648(a4)
    8000478c:	8082                	ret

000000008000478e <alsaqr_periph_padframe_periphs_pad_gpio_e_04_cfg_chip2pad_get>:
    8000478e:	1a1047b7          	lui	a5,0x1a104
    80004792:	2887a503          	lw	a0,648(a5) # 1a104288 <_tbss_end+0x1a104288>
    80004796:	8905                	andi	a0,a0,1
    80004798:	8082                	ret

000000008000479a <alsaqr_periph_padframe_periphs_pad_gpio_e_04_cfg_oen_set>:
    8000479a:	1a104737          	lui	a4,0x1a104
    8000479e:	28872783          	lw	a5,648(a4) # 1a104288 <_tbss_end+0x1a104288>
    800047a2:	00a03533          	snez	a0,a0
    800047a6:	0015151b          	slliw	a0,a0,0x1
    800047aa:	9bf5                	andi	a5,a5,-3
    800047ac:	8fc9                	or	a5,a5,a0
    800047ae:	28f72423          	sw	a5,648(a4)
    800047b2:	8082                	ret

00000000800047b4 <alsaqr_periph_padframe_periphs_pad_gpio_e_04_cfg_oen_get>:
    800047b4:	1a1047b7          	lui	a5,0x1a104
    800047b8:	2887a503          	lw	a0,648(a5) # 1a104288 <_tbss_end+0x1a104288>
    800047bc:	0015551b          	srliw	a0,a0,0x1
    800047c0:	8905                	andi	a0,a0,1
    800047c2:	8082                	ret

00000000800047c4 <alsaqr_periph_padframe_periphs_pad_gpio_e_04_cfg_puen_set>:
    800047c4:	1a104737          	lui	a4,0x1a104
    800047c8:	28872783          	lw	a5,648(a4) # 1a104288 <_tbss_end+0x1a104288>
    800047cc:	00a03533          	snez	a0,a0
    800047d0:	0025151b          	slliw	a0,a0,0x2
    800047d4:	9bed                	andi	a5,a5,-5
    800047d6:	8fc9                	or	a5,a5,a0
    800047d8:	28f72423          	sw	a5,648(a4)
    800047dc:	8082                	ret

00000000800047de <alsaqr_periph_padframe_periphs_pad_gpio_e_04_cfg_puen_get>:
    800047de:	1a1047b7          	lui	a5,0x1a104
    800047e2:	2887a503          	lw	a0,648(a5) # 1a104288 <_tbss_end+0x1a104288>
    800047e6:	0025551b          	srliw	a0,a0,0x2
    800047ea:	8905                	andi	a0,a0,1
    800047ec:	8082                	ret

00000000800047ee <alsaqr_periph_padframe_periphs_pad_gpio_e_04_mux_set>:
    800047ee:	8905                	andi	a0,a0,1
    800047f0:	1a1047b7          	lui	a5,0x1a104
    800047f4:	28a7a623          	sw	a0,652(a5) # 1a10428c <_tbss_end+0x1a10428c>
    800047f8:	8082                	ret

00000000800047fa <alsaqr_periph_padframe_periphs_pad_gpio_e_04_mux_get>:
    800047fa:	1a1047b7          	lui	a5,0x1a104
    800047fe:	28c7a503          	lw	a0,652(a5) # 1a10428c <_tbss_end+0x1a10428c>
    80004802:	8905                	andi	a0,a0,1
    80004804:	8082                	ret

0000000080004806 <alsaqr_periph_padframe_periphs_pad_gpio_e_05_cfg_chip2pad_set>:
    80004806:	1a104737          	lui	a4,0x1a104
    8000480a:	29072783          	lw	a5,656(a4) # 1a104290 <_tbss_end+0x1a104290>
    8000480e:	00a03533          	snez	a0,a0
    80004812:	9bf9                	andi	a5,a5,-2
    80004814:	8fc9                	or	a5,a5,a0
    80004816:	28f72823          	sw	a5,656(a4)
    8000481a:	8082                	ret

000000008000481c <alsaqr_periph_padframe_periphs_pad_gpio_e_05_cfg_chip2pad_get>:
    8000481c:	1a1047b7          	lui	a5,0x1a104
    80004820:	2907a503          	lw	a0,656(a5) # 1a104290 <_tbss_end+0x1a104290>
    80004824:	8905                	andi	a0,a0,1
    80004826:	8082                	ret

0000000080004828 <alsaqr_periph_padframe_periphs_pad_gpio_e_05_cfg_oen_set>:
    80004828:	1a104737          	lui	a4,0x1a104
    8000482c:	29072783          	lw	a5,656(a4) # 1a104290 <_tbss_end+0x1a104290>
    80004830:	00a03533          	snez	a0,a0
    80004834:	0015151b          	slliw	a0,a0,0x1
    80004838:	9bf5                	andi	a5,a5,-3
    8000483a:	8fc9                	or	a5,a5,a0
    8000483c:	28f72823          	sw	a5,656(a4)
    80004840:	8082                	ret

0000000080004842 <alsaqr_periph_padframe_periphs_pad_gpio_e_05_cfg_oen_get>:
    80004842:	1a1047b7          	lui	a5,0x1a104
    80004846:	2907a503          	lw	a0,656(a5) # 1a104290 <_tbss_end+0x1a104290>
    8000484a:	0015551b          	srliw	a0,a0,0x1
    8000484e:	8905                	andi	a0,a0,1
    80004850:	8082                	ret

0000000080004852 <alsaqr_periph_padframe_periphs_pad_gpio_e_05_cfg_puen_set>:
    80004852:	1a104737          	lui	a4,0x1a104
    80004856:	29072783          	lw	a5,656(a4) # 1a104290 <_tbss_end+0x1a104290>
    8000485a:	00a03533          	snez	a0,a0
    8000485e:	0025151b          	slliw	a0,a0,0x2
    80004862:	9bed                	andi	a5,a5,-5
    80004864:	8fc9                	or	a5,a5,a0
    80004866:	28f72823          	sw	a5,656(a4)
    8000486a:	8082                	ret

000000008000486c <alsaqr_periph_padframe_periphs_pad_gpio_e_05_cfg_puen_get>:
    8000486c:	1a1047b7          	lui	a5,0x1a104
    80004870:	2907a503          	lw	a0,656(a5) # 1a104290 <_tbss_end+0x1a104290>
    80004874:	0025551b          	srliw	a0,a0,0x2
    80004878:	8905                	andi	a0,a0,1
    8000487a:	8082                	ret

000000008000487c <alsaqr_periph_padframe_periphs_pad_gpio_e_05_mux_set>:
    8000487c:	8905                	andi	a0,a0,1
    8000487e:	1a1047b7          	lui	a5,0x1a104
    80004882:	28a7aa23          	sw	a0,660(a5) # 1a104294 <_tbss_end+0x1a104294>
    80004886:	8082                	ret

0000000080004888 <alsaqr_periph_padframe_periphs_pad_gpio_e_05_mux_get>:
    80004888:	1a1047b7          	lui	a5,0x1a104
    8000488c:	2947a503          	lw	a0,660(a5) # 1a104294 <_tbss_end+0x1a104294>
    80004890:	8905                	andi	a0,a0,1
    80004892:	8082                	ret

0000000080004894 <alsaqr_periph_padframe_periphs_pad_gpio_e_06_cfg_chip2pad_set>:
    80004894:	1a104737          	lui	a4,0x1a104
    80004898:	29872783          	lw	a5,664(a4) # 1a104298 <_tbss_end+0x1a104298>
    8000489c:	00a03533          	snez	a0,a0
    800048a0:	9bf9                	andi	a5,a5,-2
    800048a2:	8fc9                	or	a5,a5,a0
    800048a4:	28f72c23          	sw	a5,664(a4)
    800048a8:	8082                	ret

00000000800048aa <alsaqr_periph_padframe_periphs_pad_gpio_e_06_cfg_chip2pad_get>:
    800048aa:	1a1047b7          	lui	a5,0x1a104
    800048ae:	2987a503          	lw	a0,664(a5) # 1a104298 <_tbss_end+0x1a104298>
    800048b2:	8905                	andi	a0,a0,1
    800048b4:	8082                	ret

00000000800048b6 <alsaqr_periph_padframe_periphs_pad_gpio_e_06_cfg_oen_set>:
    800048b6:	1a104737          	lui	a4,0x1a104
    800048ba:	29872783          	lw	a5,664(a4) # 1a104298 <_tbss_end+0x1a104298>
    800048be:	00a03533          	snez	a0,a0
    800048c2:	0015151b          	slliw	a0,a0,0x1
    800048c6:	9bf5                	andi	a5,a5,-3
    800048c8:	8fc9                	or	a5,a5,a0
    800048ca:	28f72c23          	sw	a5,664(a4)
    800048ce:	8082                	ret

00000000800048d0 <alsaqr_periph_padframe_periphs_pad_gpio_e_06_cfg_oen_get>:
    800048d0:	1a1047b7          	lui	a5,0x1a104
    800048d4:	2987a503          	lw	a0,664(a5) # 1a104298 <_tbss_end+0x1a104298>
    800048d8:	0015551b          	srliw	a0,a0,0x1
    800048dc:	8905                	andi	a0,a0,1
    800048de:	8082                	ret

00000000800048e0 <alsaqr_periph_padframe_periphs_pad_gpio_e_06_cfg_puen_set>:
    800048e0:	1a104737          	lui	a4,0x1a104
    800048e4:	29872783          	lw	a5,664(a4) # 1a104298 <_tbss_end+0x1a104298>
    800048e8:	00a03533          	snez	a0,a0
    800048ec:	0025151b          	slliw	a0,a0,0x2
    800048f0:	9bed                	andi	a5,a5,-5
    800048f2:	8fc9                	or	a5,a5,a0
    800048f4:	28f72c23          	sw	a5,664(a4)
    800048f8:	8082                	ret

00000000800048fa <alsaqr_periph_padframe_periphs_pad_gpio_e_06_cfg_puen_get>:
    800048fa:	1a1047b7          	lui	a5,0x1a104
    800048fe:	2987a503          	lw	a0,664(a5) # 1a104298 <_tbss_end+0x1a104298>
    80004902:	0025551b          	srliw	a0,a0,0x2
    80004906:	8905                	andi	a0,a0,1
    80004908:	8082                	ret

000000008000490a <alsaqr_periph_padframe_periphs_pad_gpio_e_06_mux_set>:
    8000490a:	8905                	andi	a0,a0,1
    8000490c:	1a1047b7          	lui	a5,0x1a104
    80004910:	28a7ae23          	sw	a0,668(a5) # 1a10429c <_tbss_end+0x1a10429c>
    80004914:	8082                	ret

0000000080004916 <alsaqr_periph_padframe_periphs_pad_gpio_e_06_mux_get>:
    80004916:	1a1047b7          	lui	a5,0x1a104
    8000491a:	29c7a503          	lw	a0,668(a5) # 1a10429c <_tbss_end+0x1a10429c>
    8000491e:	8905                	andi	a0,a0,1
    80004920:	8082                	ret

0000000080004922 <alsaqr_periph_padframe_periphs_pad_gpio_e_07_cfg_chip2pad_set>:
    80004922:	1a104737          	lui	a4,0x1a104
    80004926:	2a072783          	lw	a5,672(a4) # 1a1042a0 <_tbss_end+0x1a1042a0>
    8000492a:	00a03533          	snez	a0,a0
    8000492e:	9bf9                	andi	a5,a5,-2
    80004930:	8fc9                	or	a5,a5,a0
    80004932:	2af72023          	sw	a5,672(a4)
    80004936:	8082                	ret

0000000080004938 <alsaqr_periph_padframe_periphs_pad_gpio_e_07_cfg_chip2pad_get>:
    80004938:	1a1047b7          	lui	a5,0x1a104
    8000493c:	2a07a503          	lw	a0,672(a5) # 1a1042a0 <_tbss_end+0x1a1042a0>
    80004940:	8905                	andi	a0,a0,1
    80004942:	8082                	ret

0000000080004944 <alsaqr_periph_padframe_periphs_pad_gpio_e_07_cfg_oen_set>:
    80004944:	1a104737          	lui	a4,0x1a104
    80004948:	2a072783          	lw	a5,672(a4) # 1a1042a0 <_tbss_end+0x1a1042a0>
    8000494c:	00a03533          	snez	a0,a0
    80004950:	0015151b          	slliw	a0,a0,0x1
    80004954:	9bf5                	andi	a5,a5,-3
    80004956:	8fc9                	or	a5,a5,a0
    80004958:	2af72023          	sw	a5,672(a4)
    8000495c:	8082                	ret

000000008000495e <alsaqr_periph_padframe_periphs_pad_gpio_e_07_cfg_oen_get>:
    8000495e:	1a1047b7          	lui	a5,0x1a104
    80004962:	2a07a503          	lw	a0,672(a5) # 1a1042a0 <_tbss_end+0x1a1042a0>
    80004966:	0015551b          	srliw	a0,a0,0x1
    8000496a:	8905                	andi	a0,a0,1
    8000496c:	8082                	ret

000000008000496e <alsaqr_periph_padframe_periphs_pad_gpio_e_07_cfg_puen_set>:
    8000496e:	1a104737          	lui	a4,0x1a104
    80004972:	2a072783          	lw	a5,672(a4) # 1a1042a0 <_tbss_end+0x1a1042a0>
    80004976:	00a03533          	snez	a0,a0
    8000497a:	0025151b          	slliw	a0,a0,0x2
    8000497e:	9bed                	andi	a5,a5,-5
    80004980:	8fc9                	or	a5,a5,a0
    80004982:	2af72023          	sw	a5,672(a4)
    80004986:	8082                	ret

0000000080004988 <alsaqr_periph_padframe_periphs_pad_gpio_e_07_cfg_puen_get>:
    80004988:	1a1047b7          	lui	a5,0x1a104
    8000498c:	2a07a503          	lw	a0,672(a5) # 1a1042a0 <_tbss_end+0x1a1042a0>
    80004990:	0025551b          	srliw	a0,a0,0x2
    80004994:	8905                	andi	a0,a0,1
    80004996:	8082                	ret

0000000080004998 <alsaqr_periph_padframe_periphs_pad_gpio_e_07_mux_set>:
    80004998:	8905                	andi	a0,a0,1
    8000499a:	1a1047b7          	lui	a5,0x1a104
    8000499e:	2aa7a223          	sw	a0,676(a5) # 1a1042a4 <_tbss_end+0x1a1042a4>
    800049a2:	8082                	ret

00000000800049a4 <alsaqr_periph_padframe_periphs_pad_gpio_e_07_mux_get>:
    800049a4:	1a1047b7          	lui	a5,0x1a104
    800049a8:	2a47a503          	lw	a0,676(a5) # 1a1042a4 <_tbss_end+0x1a1042a4>
    800049ac:	8905                	andi	a0,a0,1
    800049ae:	8082                	ret

00000000800049b0 <alsaqr_periph_padframe_periphs_pad_gpio_e_08_cfg_chip2pad_set>:
    800049b0:	1a104737          	lui	a4,0x1a104
    800049b4:	2a872783          	lw	a5,680(a4) # 1a1042a8 <_tbss_end+0x1a1042a8>
    800049b8:	00a03533          	snez	a0,a0
    800049bc:	9bf9                	andi	a5,a5,-2
    800049be:	8fc9                	or	a5,a5,a0
    800049c0:	2af72423          	sw	a5,680(a4)
    800049c4:	8082                	ret

00000000800049c6 <alsaqr_periph_padframe_periphs_pad_gpio_e_08_cfg_chip2pad_get>:
    800049c6:	1a1047b7          	lui	a5,0x1a104
    800049ca:	2a87a503          	lw	a0,680(a5) # 1a1042a8 <_tbss_end+0x1a1042a8>
    800049ce:	8905                	andi	a0,a0,1
    800049d0:	8082                	ret

00000000800049d2 <alsaqr_periph_padframe_periphs_pad_gpio_e_08_cfg_oen_set>:
    800049d2:	1a104737          	lui	a4,0x1a104
    800049d6:	2a872783          	lw	a5,680(a4) # 1a1042a8 <_tbss_end+0x1a1042a8>
    800049da:	00a03533          	snez	a0,a0
    800049de:	0015151b          	slliw	a0,a0,0x1
    800049e2:	9bf5                	andi	a5,a5,-3
    800049e4:	8fc9                	or	a5,a5,a0
    800049e6:	2af72423          	sw	a5,680(a4)
    800049ea:	8082                	ret

00000000800049ec <alsaqr_periph_padframe_periphs_pad_gpio_e_08_cfg_oen_get>:
    800049ec:	1a1047b7          	lui	a5,0x1a104
    800049f0:	2a87a503          	lw	a0,680(a5) # 1a1042a8 <_tbss_end+0x1a1042a8>
    800049f4:	0015551b          	srliw	a0,a0,0x1
    800049f8:	8905                	andi	a0,a0,1
    800049fa:	8082                	ret

00000000800049fc <alsaqr_periph_padframe_periphs_pad_gpio_e_08_cfg_puen_set>:
    800049fc:	1a104737          	lui	a4,0x1a104
    80004a00:	2a872783          	lw	a5,680(a4) # 1a1042a8 <_tbss_end+0x1a1042a8>
    80004a04:	00a03533          	snez	a0,a0
    80004a08:	0025151b          	slliw	a0,a0,0x2
    80004a0c:	9bed                	andi	a5,a5,-5
    80004a0e:	8fc9                	or	a5,a5,a0
    80004a10:	2af72423          	sw	a5,680(a4)
    80004a14:	8082                	ret

0000000080004a16 <alsaqr_periph_padframe_periphs_pad_gpio_e_08_cfg_puen_get>:
    80004a16:	1a1047b7          	lui	a5,0x1a104
    80004a1a:	2a87a503          	lw	a0,680(a5) # 1a1042a8 <_tbss_end+0x1a1042a8>
    80004a1e:	0025551b          	srliw	a0,a0,0x2
    80004a22:	8905                	andi	a0,a0,1
    80004a24:	8082                	ret

0000000080004a26 <alsaqr_periph_padframe_periphs_pad_gpio_e_08_mux_set>:
    80004a26:	890d                	andi	a0,a0,3
    80004a28:	1a1047b7          	lui	a5,0x1a104
    80004a2c:	2aa7a623          	sw	a0,684(a5) # 1a1042ac <_tbss_end+0x1a1042ac>
    80004a30:	8082                	ret

0000000080004a32 <alsaqr_periph_padframe_periphs_pad_gpio_e_08_mux_get>:
    80004a32:	1a1047b7          	lui	a5,0x1a104
    80004a36:	2ac7a503          	lw	a0,684(a5) # 1a1042ac <_tbss_end+0x1a1042ac>
    80004a3a:	890d                	andi	a0,a0,3
    80004a3c:	8082                	ret

0000000080004a3e <alsaqr_periph_padframe_periphs_pad_gpio_e_09_cfg_chip2pad_set>:
    80004a3e:	1a104737          	lui	a4,0x1a104
    80004a42:	2b072783          	lw	a5,688(a4) # 1a1042b0 <_tbss_end+0x1a1042b0>
    80004a46:	00a03533          	snez	a0,a0
    80004a4a:	9bf9                	andi	a5,a5,-2
    80004a4c:	8fc9                	or	a5,a5,a0
    80004a4e:	2af72823          	sw	a5,688(a4)
    80004a52:	8082                	ret

0000000080004a54 <alsaqr_periph_padframe_periphs_pad_gpio_e_09_cfg_chip2pad_get>:
    80004a54:	1a1047b7          	lui	a5,0x1a104
    80004a58:	2b07a503          	lw	a0,688(a5) # 1a1042b0 <_tbss_end+0x1a1042b0>
    80004a5c:	8905                	andi	a0,a0,1
    80004a5e:	8082                	ret

0000000080004a60 <alsaqr_periph_padframe_periphs_pad_gpio_e_09_cfg_oen_set>:
    80004a60:	1a104737          	lui	a4,0x1a104
    80004a64:	2b072783          	lw	a5,688(a4) # 1a1042b0 <_tbss_end+0x1a1042b0>
    80004a68:	00a03533          	snez	a0,a0
    80004a6c:	0015151b          	slliw	a0,a0,0x1
    80004a70:	9bf5                	andi	a5,a5,-3
    80004a72:	8fc9                	or	a5,a5,a0
    80004a74:	2af72823          	sw	a5,688(a4)
    80004a78:	8082                	ret

0000000080004a7a <alsaqr_periph_padframe_periphs_pad_gpio_e_09_cfg_oen_get>:
    80004a7a:	1a1047b7          	lui	a5,0x1a104
    80004a7e:	2b07a503          	lw	a0,688(a5) # 1a1042b0 <_tbss_end+0x1a1042b0>
    80004a82:	0015551b          	srliw	a0,a0,0x1
    80004a86:	8905                	andi	a0,a0,1
    80004a88:	8082                	ret

0000000080004a8a <alsaqr_periph_padframe_periphs_pad_gpio_e_09_cfg_puen_set>:
    80004a8a:	1a104737          	lui	a4,0x1a104
    80004a8e:	2b072783          	lw	a5,688(a4) # 1a1042b0 <_tbss_end+0x1a1042b0>
    80004a92:	00a03533          	snez	a0,a0
    80004a96:	0025151b          	slliw	a0,a0,0x2
    80004a9a:	9bed                	andi	a5,a5,-5
    80004a9c:	8fc9                	or	a5,a5,a0
    80004a9e:	2af72823          	sw	a5,688(a4)
    80004aa2:	8082                	ret

0000000080004aa4 <alsaqr_periph_padframe_periphs_pad_gpio_e_09_cfg_puen_get>:
    80004aa4:	1a1047b7          	lui	a5,0x1a104
    80004aa8:	2b07a503          	lw	a0,688(a5) # 1a1042b0 <_tbss_end+0x1a1042b0>
    80004aac:	0025551b          	srliw	a0,a0,0x2
    80004ab0:	8905                	andi	a0,a0,1
    80004ab2:	8082                	ret

0000000080004ab4 <alsaqr_periph_padframe_periphs_pad_gpio_e_09_mux_set>:
    80004ab4:	890d                	andi	a0,a0,3
    80004ab6:	1a1047b7          	lui	a5,0x1a104
    80004aba:	2aa7aa23          	sw	a0,692(a5) # 1a1042b4 <_tbss_end+0x1a1042b4>
    80004abe:	8082                	ret

0000000080004ac0 <alsaqr_periph_padframe_periphs_pad_gpio_e_09_mux_get>:
    80004ac0:	1a1047b7          	lui	a5,0x1a104
    80004ac4:	2b47a503          	lw	a0,692(a5) # 1a1042b4 <_tbss_end+0x1a1042b4>
    80004ac8:	890d                	andi	a0,a0,3
    80004aca:	8082                	ret

0000000080004acc <alsaqr_periph_padframe_periphs_pad_gpio_e_10_cfg_chip2pad_set>:
    80004acc:	1a104737          	lui	a4,0x1a104
    80004ad0:	2b872783          	lw	a5,696(a4) # 1a1042b8 <_tbss_end+0x1a1042b8>
    80004ad4:	00a03533          	snez	a0,a0
    80004ad8:	9bf9                	andi	a5,a5,-2
    80004ada:	8fc9                	or	a5,a5,a0
    80004adc:	2af72c23          	sw	a5,696(a4)
    80004ae0:	8082                	ret

0000000080004ae2 <alsaqr_periph_padframe_periphs_pad_gpio_e_10_cfg_chip2pad_get>:
    80004ae2:	1a1047b7          	lui	a5,0x1a104
    80004ae6:	2b87a503          	lw	a0,696(a5) # 1a1042b8 <_tbss_end+0x1a1042b8>
    80004aea:	8905                	andi	a0,a0,1
    80004aec:	8082                	ret

0000000080004aee <alsaqr_periph_padframe_periphs_pad_gpio_e_10_cfg_oen_set>:
    80004aee:	1a104737          	lui	a4,0x1a104
    80004af2:	2b872783          	lw	a5,696(a4) # 1a1042b8 <_tbss_end+0x1a1042b8>
    80004af6:	00a03533          	snez	a0,a0
    80004afa:	0015151b          	slliw	a0,a0,0x1
    80004afe:	9bf5                	andi	a5,a5,-3
    80004b00:	8fc9                	or	a5,a5,a0
    80004b02:	2af72c23          	sw	a5,696(a4)
    80004b06:	8082                	ret

0000000080004b08 <alsaqr_periph_padframe_periphs_pad_gpio_e_10_cfg_oen_get>:
    80004b08:	1a1047b7          	lui	a5,0x1a104
    80004b0c:	2b87a503          	lw	a0,696(a5) # 1a1042b8 <_tbss_end+0x1a1042b8>
    80004b10:	0015551b          	srliw	a0,a0,0x1
    80004b14:	8905                	andi	a0,a0,1
    80004b16:	8082                	ret

0000000080004b18 <alsaqr_periph_padframe_periphs_pad_gpio_e_10_cfg_puen_set>:
    80004b18:	1a104737          	lui	a4,0x1a104
    80004b1c:	2b872783          	lw	a5,696(a4) # 1a1042b8 <_tbss_end+0x1a1042b8>
    80004b20:	00a03533          	snez	a0,a0
    80004b24:	0025151b          	slliw	a0,a0,0x2
    80004b28:	9bed                	andi	a5,a5,-5
    80004b2a:	8fc9                	or	a5,a5,a0
    80004b2c:	2af72c23          	sw	a5,696(a4)
    80004b30:	8082                	ret

0000000080004b32 <alsaqr_periph_padframe_periphs_pad_gpio_e_10_cfg_puen_get>:
    80004b32:	1a1047b7          	lui	a5,0x1a104
    80004b36:	2b87a503          	lw	a0,696(a5) # 1a1042b8 <_tbss_end+0x1a1042b8>
    80004b3a:	0025551b          	srliw	a0,a0,0x2
    80004b3e:	8905                	andi	a0,a0,1
    80004b40:	8082                	ret

0000000080004b42 <alsaqr_periph_padframe_periphs_pad_gpio_e_10_mux_set>:
    80004b42:	890d                	andi	a0,a0,3
    80004b44:	1a1047b7          	lui	a5,0x1a104
    80004b48:	2aa7ae23          	sw	a0,700(a5) # 1a1042bc <_tbss_end+0x1a1042bc>
    80004b4c:	8082                	ret

0000000080004b4e <alsaqr_periph_padframe_periphs_pad_gpio_e_10_mux_get>:
    80004b4e:	1a1047b7          	lui	a5,0x1a104
    80004b52:	2bc7a503          	lw	a0,700(a5) # 1a1042bc <_tbss_end+0x1a1042bc>
    80004b56:	890d                	andi	a0,a0,3
    80004b58:	8082                	ret

0000000080004b5a <alsaqr_periph_padframe_periphs_pad_gpio_e_11_cfg_chip2pad_set>:
    80004b5a:	1a104737          	lui	a4,0x1a104
    80004b5e:	2c072783          	lw	a5,704(a4) # 1a1042c0 <_tbss_end+0x1a1042c0>
    80004b62:	00a03533          	snez	a0,a0
    80004b66:	9bf9                	andi	a5,a5,-2
    80004b68:	8fc9                	or	a5,a5,a0
    80004b6a:	2cf72023          	sw	a5,704(a4)
    80004b6e:	8082                	ret

0000000080004b70 <alsaqr_periph_padframe_periphs_pad_gpio_e_11_cfg_chip2pad_get>:
    80004b70:	1a1047b7          	lui	a5,0x1a104
    80004b74:	2c07a503          	lw	a0,704(a5) # 1a1042c0 <_tbss_end+0x1a1042c0>
    80004b78:	8905                	andi	a0,a0,1
    80004b7a:	8082                	ret

0000000080004b7c <alsaqr_periph_padframe_periphs_pad_gpio_e_11_cfg_oen_set>:
    80004b7c:	1a104737          	lui	a4,0x1a104
    80004b80:	2c072783          	lw	a5,704(a4) # 1a1042c0 <_tbss_end+0x1a1042c0>
    80004b84:	00a03533          	snez	a0,a0
    80004b88:	0015151b          	slliw	a0,a0,0x1
    80004b8c:	9bf5                	andi	a5,a5,-3
    80004b8e:	8fc9                	or	a5,a5,a0
    80004b90:	2cf72023          	sw	a5,704(a4)
    80004b94:	8082                	ret

0000000080004b96 <alsaqr_periph_padframe_periphs_pad_gpio_e_11_cfg_oen_get>:
    80004b96:	1a1047b7          	lui	a5,0x1a104
    80004b9a:	2c07a503          	lw	a0,704(a5) # 1a1042c0 <_tbss_end+0x1a1042c0>
    80004b9e:	0015551b          	srliw	a0,a0,0x1
    80004ba2:	8905                	andi	a0,a0,1
    80004ba4:	8082                	ret

0000000080004ba6 <alsaqr_periph_padframe_periphs_pad_gpio_e_11_cfg_puen_set>:
    80004ba6:	1a104737          	lui	a4,0x1a104
    80004baa:	2c072783          	lw	a5,704(a4) # 1a1042c0 <_tbss_end+0x1a1042c0>
    80004bae:	00a03533          	snez	a0,a0
    80004bb2:	0025151b          	slliw	a0,a0,0x2
    80004bb6:	9bed                	andi	a5,a5,-5
    80004bb8:	8fc9                	or	a5,a5,a0
    80004bba:	2cf72023          	sw	a5,704(a4)
    80004bbe:	8082                	ret

0000000080004bc0 <alsaqr_periph_padframe_periphs_pad_gpio_e_11_cfg_puen_get>:
    80004bc0:	1a1047b7          	lui	a5,0x1a104
    80004bc4:	2c07a503          	lw	a0,704(a5) # 1a1042c0 <_tbss_end+0x1a1042c0>
    80004bc8:	0025551b          	srliw	a0,a0,0x2
    80004bcc:	8905                	andi	a0,a0,1
    80004bce:	8082                	ret

0000000080004bd0 <alsaqr_periph_padframe_periphs_pad_gpio_e_11_mux_set>:
    80004bd0:	8905                	andi	a0,a0,1
    80004bd2:	1a1047b7          	lui	a5,0x1a104
    80004bd6:	2ca7a223          	sw	a0,708(a5) # 1a1042c4 <_tbss_end+0x1a1042c4>
    80004bda:	8082                	ret

0000000080004bdc <alsaqr_periph_padframe_periphs_pad_gpio_e_11_mux_get>:
    80004bdc:	1a1047b7          	lui	a5,0x1a104
    80004be0:	2c47a503          	lw	a0,708(a5) # 1a1042c4 <_tbss_end+0x1a1042c4>
    80004be4:	8905                	andi	a0,a0,1
    80004be6:	8082                	ret

0000000080004be8 <alsaqr_periph_padframe_periphs_pad_gpio_e_12_cfg_chip2pad_set>:
    80004be8:	1a104737          	lui	a4,0x1a104
    80004bec:	2c872783          	lw	a5,712(a4) # 1a1042c8 <_tbss_end+0x1a1042c8>
    80004bf0:	00a03533          	snez	a0,a0
    80004bf4:	9bf9                	andi	a5,a5,-2
    80004bf6:	8fc9                	or	a5,a5,a0
    80004bf8:	2cf72423          	sw	a5,712(a4)
    80004bfc:	8082                	ret

0000000080004bfe <alsaqr_periph_padframe_periphs_pad_gpio_e_12_cfg_chip2pad_get>:
    80004bfe:	1a1047b7          	lui	a5,0x1a104
    80004c02:	2c87a503          	lw	a0,712(a5) # 1a1042c8 <_tbss_end+0x1a1042c8>
    80004c06:	8905                	andi	a0,a0,1
    80004c08:	8082                	ret

0000000080004c0a <alsaqr_periph_padframe_periphs_pad_gpio_e_12_cfg_oen_set>:
    80004c0a:	1a104737          	lui	a4,0x1a104
    80004c0e:	2c872783          	lw	a5,712(a4) # 1a1042c8 <_tbss_end+0x1a1042c8>
    80004c12:	00a03533          	snez	a0,a0
    80004c16:	0015151b          	slliw	a0,a0,0x1
    80004c1a:	9bf5                	andi	a5,a5,-3
    80004c1c:	8fc9                	or	a5,a5,a0
    80004c1e:	2cf72423          	sw	a5,712(a4)
    80004c22:	8082                	ret

0000000080004c24 <alsaqr_periph_padframe_periphs_pad_gpio_e_12_cfg_oen_get>:
    80004c24:	1a1047b7          	lui	a5,0x1a104
    80004c28:	2c87a503          	lw	a0,712(a5) # 1a1042c8 <_tbss_end+0x1a1042c8>
    80004c2c:	0015551b          	srliw	a0,a0,0x1
    80004c30:	8905                	andi	a0,a0,1
    80004c32:	8082                	ret

0000000080004c34 <alsaqr_periph_padframe_periphs_pad_gpio_e_12_cfg_puen_set>:
    80004c34:	1a104737          	lui	a4,0x1a104
    80004c38:	2c872783          	lw	a5,712(a4) # 1a1042c8 <_tbss_end+0x1a1042c8>
    80004c3c:	00a03533          	snez	a0,a0
    80004c40:	0025151b          	slliw	a0,a0,0x2
    80004c44:	9bed                	andi	a5,a5,-5
    80004c46:	8fc9                	or	a5,a5,a0
    80004c48:	2cf72423          	sw	a5,712(a4)
    80004c4c:	8082                	ret

0000000080004c4e <alsaqr_periph_padframe_periphs_pad_gpio_e_12_cfg_puen_get>:
    80004c4e:	1a1047b7          	lui	a5,0x1a104
    80004c52:	2c87a503          	lw	a0,712(a5) # 1a1042c8 <_tbss_end+0x1a1042c8>
    80004c56:	0025551b          	srliw	a0,a0,0x2
    80004c5a:	8905                	andi	a0,a0,1
    80004c5c:	8082                	ret

0000000080004c5e <alsaqr_periph_padframe_periphs_pad_gpio_e_12_mux_set>:
    80004c5e:	8905                	andi	a0,a0,1
    80004c60:	1a1047b7          	lui	a5,0x1a104
    80004c64:	2ca7a623          	sw	a0,716(a5) # 1a1042cc <_tbss_end+0x1a1042cc>
    80004c68:	8082                	ret

0000000080004c6a <alsaqr_periph_padframe_periphs_pad_gpio_e_12_mux_get>:
    80004c6a:	1a1047b7          	lui	a5,0x1a104
    80004c6e:	2cc7a503          	lw	a0,716(a5) # 1a1042cc <_tbss_end+0x1a1042cc>
    80004c72:	8905                	andi	a0,a0,1
    80004c74:	8082                	ret

0000000080004c76 <alsaqr_periph_padframe_periphs_pad_gpio_f_00_cfg_chip2pad_set>:
    80004c76:	1a104737          	lui	a4,0x1a104
    80004c7a:	2d072783          	lw	a5,720(a4) # 1a1042d0 <_tbss_end+0x1a1042d0>
    80004c7e:	00a03533          	snez	a0,a0
    80004c82:	9bf9                	andi	a5,a5,-2
    80004c84:	8fc9                	or	a5,a5,a0
    80004c86:	2cf72823          	sw	a5,720(a4)
    80004c8a:	8082                	ret

0000000080004c8c <alsaqr_periph_padframe_periphs_pad_gpio_f_00_cfg_chip2pad_get>:
    80004c8c:	1a1047b7          	lui	a5,0x1a104
    80004c90:	2d07a503          	lw	a0,720(a5) # 1a1042d0 <_tbss_end+0x1a1042d0>
    80004c94:	8905                	andi	a0,a0,1
    80004c96:	8082                	ret

0000000080004c98 <alsaqr_periph_padframe_periphs_pad_gpio_f_00_cfg_oen_set>:
    80004c98:	1a104737          	lui	a4,0x1a104
    80004c9c:	2d072783          	lw	a5,720(a4) # 1a1042d0 <_tbss_end+0x1a1042d0>
    80004ca0:	00a03533          	snez	a0,a0
    80004ca4:	0015151b          	slliw	a0,a0,0x1
    80004ca8:	9bf5                	andi	a5,a5,-3
    80004caa:	8fc9                	or	a5,a5,a0
    80004cac:	2cf72823          	sw	a5,720(a4)
    80004cb0:	8082                	ret

0000000080004cb2 <alsaqr_periph_padframe_periphs_pad_gpio_f_00_cfg_oen_get>:
    80004cb2:	1a1047b7          	lui	a5,0x1a104
    80004cb6:	2d07a503          	lw	a0,720(a5) # 1a1042d0 <_tbss_end+0x1a1042d0>
    80004cba:	0015551b          	srliw	a0,a0,0x1
    80004cbe:	8905                	andi	a0,a0,1
    80004cc0:	8082                	ret

0000000080004cc2 <alsaqr_periph_padframe_periphs_pad_gpio_f_00_cfg_puen_set>:
    80004cc2:	1a104737          	lui	a4,0x1a104
    80004cc6:	2d072783          	lw	a5,720(a4) # 1a1042d0 <_tbss_end+0x1a1042d0>
    80004cca:	00a03533          	snez	a0,a0
    80004cce:	0025151b          	slliw	a0,a0,0x2
    80004cd2:	9bed                	andi	a5,a5,-5
    80004cd4:	8fc9                	or	a5,a5,a0
    80004cd6:	2cf72823          	sw	a5,720(a4)
    80004cda:	8082                	ret

0000000080004cdc <alsaqr_periph_padframe_periphs_pad_gpio_f_00_cfg_puen_get>:
    80004cdc:	1a1047b7          	lui	a5,0x1a104
    80004ce0:	2d07a503          	lw	a0,720(a5) # 1a1042d0 <_tbss_end+0x1a1042d0>
    80004ce4:	0025551b          	srliw	a0,a0,0x2
    80004ce8:	8905                	andi	a0,a0,1
    80004cea:	8082                	ret

0000000080004cec <alsaqr_periph_padframe_periphs_pad_gpio_f_00_mux_set>:
    80004cec:	8905                	andi	a0,a0,1
    80004cee:	1a1047b7          	lui	a5,0x1a104
    80004cf2:	2ca7aa23          	sw	a0,724(a5) # 1a1042d4 <_tbss_end+0x1a1042d4>
    80004cf6:	8082                	ret

0000000080004cf8 <alsaqr_periph_padframe_periphs_pad_gpio_f_00_mux_get>:
    80004cf8:	1a1047b7          	lui	a5,0x1a104
    80004cfc:	2d47a503          	lw	a0,724(a5) # 1a1042d4 <_tbss_end+0x1a1042d4>
    80004d00:	8905                	andi	a0,a0,1
    80004d02:	8082                	ret

0000000080004d04 <alsaqr_periph_padframe_periphs_pad_gpio_f_01_cfg_chip2pad_set>:
    80004d04:	1a104737          	lui	a4,0x1a104
    80004d08:	2d872783          	lw	a5,728(a4) # 1a1042d8 <_tbss_end+0x1a1042d8>
    80004d0c:	00a03533          	snez	a0,a0
    80004d10:	9bf9                	andi	a5,a5,-2
    80004d12:	8fc9                	or	a5,a5,a0
    80004d14:	2cf72c23          	sw	a5,728(a4)
    80004d18:	8082                	ret

0000000080004d1a <alsaqr_periph_padframe_periphs_pad_gpio_f_01_cfg_chip2pad_get>:
    80004d1a:	1a1047b7          	lui	a5,0x1a104
    80004d1e:	2d87a503          	lw	a0,728(a5) # 1a1042d8 <_tbss_end+0x1a1042d8>
    80004d22:	8905                	andi	a0,a0,1
    80004d24:	8082                	ret

0000000080004d26 <alsaqr_periph_padframe_periphs_pad_gpio_f_01_cfg_oen_set>:
    80004d26:	1a104737          	lui	a4,0x1a104
    80004d2a:	2d872783          	lw	a5,728(a4) # 1a1042d8 <_tbss_end+0x1a1042d8>
    80004d2e:	00a03533          	snez	a0,a0
    80004d32:	0015151b          	slliw	a0,a0,0x1
    80004d36:	9bf5                	andi	a5,a5,-3
    80004d38:	8fc9                	or	a5,a5,a0
    80004d3a:	2cf72c23          	sw	a5,728(a4)
    80004d3e:	8082                	ret

0000000080004d40 <alsaqr_periph_padframe_periphs_pad_gpio_f_01_cfg_oen_get>:
    80004d40:	1a1047b7          	lui	a5,0x1a104
    80004d44:	2d87a503          	lw	a0,728(a5) # 1a1042d8 <_tbss_end+0x1a1042d8>
    80004d48:	0015551b          	srliw	a0,a0,0x1
    80004d4c:	8905                	andi	a0,a0,1
    80004d4e:	8082                	ret

0000000080004d50 <alsaqr_periph_padframe_periphs_pad_gpio_f_01_cfg_puen_set>:
    80004d50:	1a104737          	lui	a4,0x1a104
    80004d54:	2d872783          	lw	a5,728(a4) # 1a1042d8 <_tbss_end+0x1a1042d8>
    80004d58:	00a03533          	snez	a0,a0
    80004d5c:	0025151b          	slliw	a0,a0,0x2
    80004d60:	9bed                	andi	a5,a5,-5
    80004d62:	8fc9                	or	a5,a5,a0
    80004d64:	2cf72c23          	sw	a5,728(a4)
    80004d68:	8082                	ret

0000000080004d6a <alsaqr_periph_padframe_periphs_pad_gpio_f_01_cfg_puen_get>:
    80004d6a:	1a1047b7          	lui	a5,0x1a104
    80004d6e:	2d87a503          	lw	a0,728(a5) # 1a1042d8 <_tbss_end+0x1a1042d8>
    80004d72:	0025551b          	srliw	a0,a0,0x2
    80004d76:	8905                	andi	a0,a0,1
    80004d78:	8082                	ret

0000000080004d7a <alsaqr_periph_padframe_periphs_pad_gpio_f_01_mux_set>:
    80004d7a:	890d                	andi	a0,a0,3
    80004d7c:	1a1047b7          	lui	a5,0x1a104
    80004d80:	2ca7ae23          	sw	a0,732(a5) # 1a1042dc <_tbss_end+0x1a1042dc>
    80004d84:	8082                	ret

0000000080004d86 <alsaqr_periph_padframe_periphs_pad_gpio_f_01_mux_get>:
    80004d86:	1a1047b7          	lui	a5,0x1a104
    80004d8a:	2dc7a503          	lw	a0,732(a5) # 1a1042dc <_tbss_end+0x1a1042dc>
    80004d8e:	890d                	andi	a0,a0,3
    80004d90:	8082                	ret

0000000080004d92 <alsaqr_periph_padframe_periphs_pad_gpio_f_02_cfg_chip2pad_set>:
    80004d92:	1a104737          	lui	a4,0x1a104
    80004d96:	2e072783          	lw	a5,736(a4) # 1a1042e0 <_tbss_end+0x1a1042e0>
    80004d9a:	00a03533          	snez	a0,a0
    80004d9e:	9bf9                	andi	a5,a5,-2
    80004da0:	8fc9                	or	a5,a5,a0
    80004da2:	2ef72023          	sw	a5,736(a4)
    80004da6:	8082                	ret

0000000080004da8 <alsaqr_periph_padframe_periphs_pad_gpio_f_02_cfg_chip2pad_get>:
    80004da8:	1a1047b7          	lui	a5,0x1a104
    80004dac:	2e07a503          	lw	a0,736(a5) # 1a1042e0 <_tbss_end+0x1a1042e0>
    80004db0:	8905                	andi	a0,a0,1
    80004db2:	8082                	ret

0000000080004db4 <alsaqr_periph_padframe_periphs_pad_gpio_f_02_cfg_oen_set>:
    80004db4:	1a104737          	lui	a4,0x1a104
    80004db8:	2e072783          	lw	a5,736(a4) # 1a1042e0 <_tbss_end+0x1a1042e0>
    80004dbc:	00a03533          	snez	a0,a0
    80004dc0:	0015151b          	slliw	a0,a0,0x1
    80004dc4:	9bf5                	andi	a5,a5,-3
    80004dc6:	8fc9                	or	a5,a5,a0
    80004dc8:	2ef72023          	sw	a5,736(a4)
    80004dcc:	8082                	ret

0000000080004dce <alsaqr_periph_padframe_periphs_pad_gpio_f_02_cfg_oen_get>:
    80004dce:	1a1047b7          	lui	a5,0x1a104
    80004dd2:	2e07a503          	lw	a0,736(a5) # 1a1042e0 <_tbss_end+0x1a1042e0>
    80004dd6:	0015551b          	srliw	a0,a0,0x1
    80004dda:	8905                	andi	a0,a0,1
    80004ddc:	8082                	ret

0000000080004dde <alsaqr_periph_padframe_periphs_pad_gpio_f_02_cfg_puen_set>:
    80004dde:	1a104737          	lui	a4,0x1a104
    80004de2:	2e072783          	lw	a5,736(a4) # 1a1042e0 <_tbss_end+0x1a1042e0>
    80004de6:	00a03533          	snez	a0,a0
    80004dea:	0025151b          	slliw	a0,a0,0x2
    80004dee:	9bed                	andi	a5,a5,-5
    80004df0:	8fc9                	or	a5,a5,a0
    80004df2:	2ef72023          	sw	a5,736(a4)
    80004df6:	8082                	ret

0000000080004df8 <alsaqr_periph_padframe_periphs_pad_gpio_f_02_cfg_puen_get>:
    80004df8:	1a1047b7          	lui	a5,0x1a104
    80004dfc:	2e07a503          	lw	a0,736(a5) # 1a1042e0 <_tbss_end+0x1a1042e0>
    80004e00:	0025551b          	srliw	a0,a0,0x2
    80004e04:	8905                	andi	a0,a0,1
    80004e06:	8082                	ret

0000000080004e08 <alsaqr_periph_padframe_periphs_pad_gpio_f_02_mux_set>:
    80004e08:	890d                	andi	a0,a0,3
    80004e0a:	1a1047b7          	lui	a5,0x1a104
    80004e0e:	2ea7a223          	sw	a0,740(a5) # 1a1042e4 <_tbss_end+0x1a1042e4>
    80004e12:	8082                	ret

0000000080004e14 <alsaqr_periph_padframe_periphs_pad_gpio_f_02_mux_get>:
    80004e14:	1a1047b7          	lui	a5,0x1a104
    80004e18:	2e47a503          	lw	a0,740(a5) # 1a1042e4 <_tbss_end+0x1a1042e4>
    80004e1c:	890d                	andi	a0,a0,3
    80004e1e:	8082                	ret

0000000080004e20 <alsaqr_periph_padframe_periphs_pad_gpio_f_03_cfg_chip2pad_set>:
    80004e20:	1a104737          	lui	a4,0x1a104
    80004e24:	2e872783          	lw	a5,744(a4) # 1a1042e8 <_tbss_end+0x1a1042e8>
    80004e28:	00a03533          	snez	a0,a0
    80004e2c:	9bf9                	andi	a5,a5,-2
    80004e2e:	8fc9                	or	a5,a5,a0
    80004e30:	2ef72423          	sw	a5,744(a4)
    80004e34:	8082                	ret

0000000080004e36 <alsaqr_periph_padframe_periphs_pad_gpio_f_03_cfg_chip2pad_get>:
    80004e36:	1a1047b7          	lui	a5,0x1a104
    80004e3a:	2e87a503          	lw	a0,744(a5) # 1a1042e8 <_tbss_end+0x1a1042e8>
    80004e3e:	8905                	andi	a0,a0,1
    80004e40:	8082                	ret

0000000080004e42 <alsaqr_periph_padframe_periphs_pad_gpio_f_03_cfg_oen_set>:
    80004e42:	1a104737          	lui	a4,0x1a104
    80004e46:	2e872783          	lw	a5,744(a4) # 1a1042e8 <_tbss_end+0x1a1042e8>
    80004e4a:	00a03533          	snez	a0,a0
    80004e4e:	0015151b          	slliw	a0,a0,0x1
    80004e52:	9bf5                	andi	a5,a5,-3
    80004e54:	8fc9                	or	a5,a5,a0
    80004e56:	2ef72423          	sw	a5,744(a4)
    80004e5a:	8082                	ret

0000000080004e5c <alsaqr_periph_padframe_periphs_pad_gpio_f_03_cfg_oen_get>:
    80004e5c:	1a1047b7          	lui	a5,0x1a104
    80004e60:	2e87a503          	lw	a0,744(a5) # 1a1042e8 <_tbss_end+0x1a1042e8>
    80004e64:	0015551b          	srliw	a0,a0,0x1
    80004e68:	8905                	andi	a0,a0,1
    80004e6a:	8082                	ret

0000000080004e6c <alsaqr_periph_padframe_periphs_pad_gpio_f_03_cfg_puen_set>:
    80004e6c:	1a104737          	lui	a4,0x1a104
    80004e70:	2e872783          	lw	a5,744(a4) # 1a1042e8 <_tbss_end+0x1a1042e8>
    80004e74:	00a03533          	snez	a0,a0
    80004e78:	0025151b          	slliw	a0,a0,0x2
    80004e7c:	9bed                	andi	a5,a5,-5
    80004e7e:	8fc9                	or	a5,a5,a0
    80004e80:	2ef72423          	sw	a5,744(a4)
    80004e84:	8082                	ret

0000000080004e86 <alsaqr_periph_padframe_periphs_pad_gpio_f_03_cfg_puen_get>:
    80004e86:	1a1047b7          	lui	a5,0x1a104
    80004e8a:	2e87a503          	lw	a0,744(a5) # 1a1042e8 <_tbss_end+0x1a1042e8>
    80004e8e:	0025551b          	srliw	a0,a0,0x2
    80004e92:	8905                	andi	a0,a0,1
    80004e94:	8082                	ret

0000000080004e96 <alsaqr_periph_padframe_periphs_pad_gpio_f_03_mux_set>:
    80004e96:	890d                	andi	a0,a0,3
    80004e98:	1a1047b7          	lui	a5,0x1a104
    80004e9c:	2ea7a623          	sw	a0,748(a5) # 1a1042ec <_tbss_end+0x1a1042ec>
    80004ea0:	8082                	ret

0000000080004ea2 <alsaqr_periph_padframe_periphs_pad_gpio_f_03_mux_get>:
    80004ea2:	1a1047b7          	lui	a5,0x1a104
    80004ea6:	2ec7a503          	lw	a0,748(a5) # 1a1042ec <_tbss_end+0x1a1042ec>
    80004eaa:	890d                	andi	a0,a0,3
    80004eac:	8082                	ret

0000000080004eae <alsaqr_periph_padframe_periphs_pad_gpio_f_04_cfg_chip2pad_set>:
    80004eae:	1a104737          	lui	a4,0x1a104
    80004eb2:	2f072783          	lw	a5,752(a4) # 1a1042f0 <_tbss_end+0x1a1042f0>
    80004eb6:	00a03533          	snez	a0,a0
    80004eba:	9bf9                	andi	a5,a5,-2
    80004ebc:	8fc9                	or	a5,a5,a0
    80004ebe:	2ef72823          	sw	a5,752(a4)
    80004ec2:	8082                	ret

0000000080004ec4 <alsaqr_periph_padframe_periphs_pad_gpio_f_04_cfg_chip2pad_get>:
    80004ec4:	1a1047b7          	lui	a5,0x1a104
    80004ec8:	2f07a503          	lw	a0,752(a5) # 1a1042f0 <_tbss_end+0x1a1042f0>
    80004ecc:	8905                	andi	a0,a0,1
    80004ece:	8082                	ret

0000000080004ed0 <alsaqr_periph_padframe_periphs_pad_gpio_f_04_cfg_oen_set>:
    80004ed0:	1a104737          	lui	a4,0x1a104
    80004ed4:	2f072783          	lw	a5,752(a4) # 1a1042f0 <_tbss_end+0x1a1042f0>
    80004ed8:	00a03533          	snez	a0,a0
    80004edc:	0015151b          	slliw	a0,a0,0x1
    80004ee0:	9bf5                	andi	a5,a5,-3
    80004ee2:	8fc9                	or	a5,a5,a0
    80004ee4:	2ef72823          	sw	a5,752(a4)
    80004ee8:	8082                	ret

0000000080004eea <alsaqr_periph_padframe_periphs_pad_gpio_f_04_cfg_oen_get>:
    80004eea:	1a1047b7          	lui	a5,0x1a104
    80004eee:	2f07a503          	lw	a0,752(a5) # 1a1042f0 <_tbss_end+0x1a1042f0>
    80004ef2:	0015551b          	srliw	a0,a0,0x1
    80004ef6:	8905                	andi	a0,a0,1
    80004ef8:	8082                	ret

0000000080004efa <alsaqr_periph_padframe_periphs_pad_gpio_f_04_cfg_puen_set>:
    80004efa:	1a104737          	lui	a4,0x1a104
    80004efe:	2f072783          	lw	a5,752(a4) # 1a1042f0 <_tbss_end+0x1a1042f0>
    80004f02:	00a03533          	snez	a0,a0
    80004f06:	0025151b          	slliw	a0,a0,0x2
    80004f0a:	9bed                	andi	a5,a5,-5
    80004f0c:	8fc9                	or	a5,a5,a0
    80004f0e:	2ef72823          	sw	a5,752(a4)
    80004f12:	8082                	ret

0000000080004f14 <alsaqr_periph_padframe_periphs_pad_gpio_f_04_cfg_puen_get>:
    80004f14:	1a1047b7          	lui	a5,0x1a104
    80004f18:	2f07a503          	lw	a0,752(a5) # 1a1042f0 <_tbss_end+0x1a1042f0>
    80004f1c:	0025551b          	srliw	a0,a0,0x2
    80004f20:	8905                	andi	a0,a0,1
    80004f22:	8082                	ret

0000000080004f24 <alsaqr_periph_padframe_periphs_pad_gpio_f_04_mux_set>:
    80004f24:	890d                	andi	a0,a0,3
    80004f26:	1a1047b7          	lui	a5,0x1a104
    80004f2a:	2ea7aa23          	sw	a0,756(a5) # 1a1042f4 <_tbss_end+0x1a1042f4>
    80004f2e:	8082                	ret

0000000080004f30 <alsaqr_periph_padframe_periphs_pad_gpio_f_04_mux_get>:
    80004f30:	1a1047b7          	lui	a5,0x1a104
    80004f34:	2f47a503          	lw	a0,756(a5) # 1a1042f4 <_tbss_end+0x1a1042f4>
    80004f38:	890d                	andi	a0,a0,3
    80004f3a:	8082                	ret

0000000080004f3c <alsaqr_periph_padframe_periphs_pad_gpio_f_05_cfg_chip2pad_set>:
    80004f3c:	1a104737          	lui	a4,0x1a104
    80004f40:	2f872783          	lw	a5,760(a4) # 1a1042f8 <_tbss_end+0x1a1042f8>
    80004f44:	00a03533          	snez	a0,a0
    80004f48:	9bf9                	andi	a5,a5,-2
    80004f4a:	8fc9                	or	a5,a5,a0
    80004f4c:	2ef72c23          	sw	a5,760(a4)
    80004f50:	8082                	ret

0000000080004f52 <alsaqr_periph_padframe_periphs_pad_gpio_f_05_cfg_chip2pad_get>:
    80004f52:	1a1047b7          	lui	a5,0x1a104
    80004f56:	2f87a503          	lw	a0,760(a5) # 1a1042f8 <_tbss_end+0x1a1042f8>
    80004f5a:	8905                	andi	a0,a0,1
    80004f5c:	8082                	ret

0000000080004f5e <alsaqr_periph_padframe_periphs_pad_gpio_f_05_cfg_oen_set>:
    80004f5e:	1a104737          	lui	a4,0x1a104
    80004f62:	2f872783          	lw	a5,760(a4) # 1a1042f8 <_tbss_end+0x1a1042f8>
    80004f66:	00a03533          	snez	a0,a0
    80004f6a:	0015151b          	slliw	a0,a0,0x1
    80004f6e:	9bf5                	andi	a5,a5,-3
    80004f70:	8fc9                	or	a5,a5,a0
    80004f72:	2ef72c23          	sw	a5,760(a4)
    80004f76:	8082                	ret

0000000080004f78 <alsaqr_periph_padframe_periphs_pad_gpio_f_05_cfg_oen_get>:
    80004f78:	1a1047b7          	lui	a5,0x1a104
    80004f7c:	2f87a503          	lw	a0,760(a5) # 1a1042f8 <_tbss_end+0x1a1042f8>
    80004f80:	0015551b          	srliw	a0,a0,0x1
    80004f84:	8905                	andi	a0,a0,1
    80004f86:	8082                	ret

0000000080004f88 <alsaqr_periph_padframe_periphs_pad_gpio_f_05_cfg_puen_set>:
    80004f88:	1a104737          	lui	a4,0x1a104
    80004f8c:	2f872783          	lw	a5,760(a4) # 1a1042f8 <_tbss_end+0x1a1042f8>
    80004f90:	00a03533          	snez	a0,a0
    80004f94:	0025151b          	slliw	a0,a0,0x2
    80004f98:	9bed                	andi	a5,a5,-5
    80004f9a:	8fc9                	or	a5,a5,a0
    80004f9c:	2ef72c23          	sw	a5,760(a4)
    80004fa0:	8082                	ret

0000000080004fa2 <alsaqr_periph_padframe_periphs_pad_gpio_f_05_cfg_puen_get>:
    80004fa2:	1a1047b7          	lui	a5,0x1a104
    80004fa6:	2f87a503          	lw	a0,760(a5) # 1a1042f8 <_tbss_end+0x1a1042f8>
    80004faa:	0025551b          	srliw	a0,a0,0x2
    80004fae:	8905                	andi	a0,a0,1
    80004fb0:	8082                	ret

0000000080004fb2 <alsaqr_periph_padframe_periphs_pad_gpio_f_05_mux_set>:
    80004fb2:	890d                	andi	a0,a0,3
    80004fb4:	1a1047b7          	lui	a5,0x1a104
    80004fb8:	2ea7ae23          	sw	a0,764(a5) # 1a1042fc <_tbss_end+0x1a1042fc>
    80004fbc:	8082                	ret

0000000080004fbe <alsaqr_periph_padframe_periphs_pad_gpio_f_05_mux_get>:
    80004fbe:	1a1047b7          	lui	a5,0x1a104
    80004fc2:	2fc7a503          	lw	a0,764(a5) # 1a1042fc <_tbss_end+0x1a1042fc>
    80004fc6:	890d                	andi	a0,a0,3
    80004fc8:	8082                	ret

0000000080004fca <alsaqr_periph_padframe_periphs_pad_gpio_f_06_cfg_chip2pad_set>:
    80004fca:	1a104737          	lui	a4,0x1a104
    80004fce:	30072783          	lw	a5,768(a4) # 1a104300 <_tbss_end+0x1a104300>
    80004fd2:	00a03533          	snez	a0,a0
    80004fd6:	9bf9                	andi	a5,a5,-2
    80004fd8:	8fc9                	or	a5,a5,a0
    80004fda:	30f72023          	sw	a5,768(a4)
    80004fde:	8082                	ret

0000000080004fe0 <alsaqr_periph_padframe_periphs_pad_gpio_f_06_cfg_chip2pad_get>:
    80004fe0:	1a1047b7          	lui	a5,0x1a104
    80004fe4:	3007a503          	lw	a0,768(a5) # 1a104300 <_tbss_end+0x1a104300>
    80004fe8:	8905                	andi	a0,a0,1
    80004fea:	8082                	ret

0000000080004fec <alsaqr_periph_padframe_periphs_pad_gpio_f_06_cfg_oen_set>:
    80004fec:	1a104737          	lui	a4,0x1a104
    80004ff0:	30072783          	lw	a5,768(a4) # 1a104300 <_tbss_end+0x1a104300>
    80004ff4:	00a03533          	snez	a0,a0
    80004ff8:	0015151b          	slliw	a0,a0,0x1
    80004ffc:	9bf5                	andi	a5,a5,-3
    80004ffe:	8fc9                	or	a5,a5,a0
    80005000:	30f72023          	sw	a5,768(a4)
    80005004:	8082                	ret

0000000080005006 <alsaqr_periph_padframe_periphs_pad_gpio_f_06_cfg_oen_get>:
    80005006:	1a1047b7          	lui	a5,0x1a104
    8000500a:	3007a503          	lw	a0,768(a5) # 1a104300 <_tbss_end+0x1a104300>
    8000500e:	0015551b          	srliw	a0,a0,0x1
    80005012:	8905                	andi	a0,a0,1
    80005014:	8082                	ret

0000000080005016 <alsaqr_periph_padframe_periphs_pad_gpio_f_06_cfg_puen_set>:
    80005016:	1a104737          	lui	a4,0x1a104
    8000501a:	30072783          	lw	a5,768(a4) # 1a104300 <_tbss_end+0x1a104300>
    8000501e:	00a03533          	snez	a0,a0
    80005022:	0025151b          	slliw	a0,a0,0x2
    80005026:	9bed                	andi	a5,a5,-5
    80005028:	8fc9                	or	a5,a5,a0
    8000502a:	30f72023          	sw	a5,768(a4)
    8000502e:	8082                	ret

0000000080005030 <alsaqr_periph_padframe_periphs_pad_gpio_f_06_cfg_puen_get>:
    80005030:	1a1047b7          	lui	a5,0x1a104
    80005034:	3007a503          	lw	a0,768(a5) # 1a104300 <_tbss_end+0x1a104300>
    80005038:	0025551b          	srliw	a0,a0,0x2
    8000503c:	8905                	andi	a0,a0,1
    8000503e:	8082                	ret

0000000080005040 <alsaqr_periph_padframe_periphs_pad_gpio_f_06_mux_set>:
    80005040:	890d                	andi	a0,a0,3
    80005042:	1a1047b7          	lui	a5,0x1a104
    80005046:	30a7a223          	sw	a0,772(a5) # 1a104304 <_tbss_end+0x1a104304>
    8000504a:	8082                	ret

000000008000504c <alsaqr_periph_padframe_periphs_pad_gpio_f_06_mux_get>:
    8000504c:	1a1047b7          	lui	a5,0x1a104
    80005050:	3047a503          	lw	a0,772(a5) # 1a104304 <_tbss_end+0x1a104304>
    80005054:	890d                	andi	a0,a0,3
    80005056:	8082                	ret

0000000080005058 <alsaqr_periph_padframe_periphs_pad_gpio_f_07_cfg_chip2pad_set>:
    80005058:	1a104737          	lui	a4,0x1a104
    8000505c:	30872783          	lw	a5,776(a4) # 1a104308 <_tbss_end+0x1a104308>
    80005060:	00a03533          	snez	a0,a0
    80005064:	9bf9                	andi	a5,a5,-2
    80005066:	8fc9                	or	a5,a5,a0
    80005068:	30f72423          	sw	a5,776(a4)
    8000506c:	8082                	ret

000000008000506e <alsaqr_periph_padframe_periphs_pad_gpio_f_07_cfg_chip2pad_get>:
    8000506e:	1a1047b7          	lui	a5,0x1a104
    80005072:	3087a503          	lw	a0,776(a5) # 1a104308 <_tbss_end+0x1a104308>
    80005076:	8905                	andi	a0,a0,1
    80005078:	8082                	ret

000000008000507a <alsaqr_periph_padframe_periphs_pad_gpio_f_07_cfg_oen_set>:
    8000507a:	1a104737          	lui	a4,0x1a104
    8000507e:	30872783          	lw	a5,776(a4) # 1a104308 <_tbss_end+0x1a104308>
    80005082:	00a03533          	snez	a0,a0
    80005086:	0015151b          	slliw	a0,a0,0x1
    8000508a:	9bf5                	andi	a5,a5,-3
    8000508c:	8fc9                	or	a5,a5,a0
    8000508e:	30f72423          	sw	a5,776(a4)
    80005092:	8082                	ret

0000000080005094 <alsaqr_periph_padframe_periphs_pad_gpio_f_07_cfg_oen_get>:
    80005094:	1a1047b7          	lui	a5,0x1a104
    80005098:	3087a503          	lw	a0,776(a5) # 1a104308 <_tbss_end+0x1a104308>
    8000509c:	0015551b          	srliw	a0,a0,0x1
    800050a0:	8905                	andi	a0,a0,1
    800050a2:	8082                	ret

00000000800050a4 <alsaqr_periph_padframe_periphs_pad_gpio_f_07_cfg_puen_set>:
    800050a4:	1a104737          	lui	a4,0x1a104
    800050a8:	30872783          	lw	a5,776(a4) # 1a104308 <_tbss_end+0x1a104308>
    800050ac:	00a03533          	snez	a0,a0
    800050b0:	0025151b          	slliw	a0,a0,0x2
    800050b4:	9bed                	andi	a5,a5,-5
    800050b6:	8fc9                	or	a5,a5,a0
    800050b8:	30f72423          	sw	a5,776(a4)
    800050bc:	8082                	ret

00000000800050be <alsaqr_periph_padframe_periphs_pad_gpio_f_07_cfg_puen_get>:
    800050be:	1a1047b7          	lui	a5,0x1a104
    800050c2:	3087a503          	lw	a0,776(a5) # 1a104308 <_tbss_end+0x1a104308>
    800050c6:	0025551b          	srliw	a0,a0,0x2
    800050ca:	8905                	andi	a0,a0,1
    800050cc:	8082                	ret

00000000800050ce <alsaqr_periph_padframe_periphs_pad_gpio_f_07_mux_set>:
    800050ce:	890d                	andi	a0,a0,3
    800050d0:	1a1047b7          	lui	a5,0x1a104
    800050d4:	30a7a623          	sw	a0,780(a5) # 1a10430c <_tbss_end+0x1a10430c>
    800050d8:	8082                	ret

00000000800050da <alsaqr_periph_padframe_periphs_pad_gpio_f_07_mux_get>:
    800050da:	1a1047b7          	lui	a5,0x1a104
    800050de:	30c7a503          	lw	a0,780(a5) # 1a10430c <_tbss_end+0x1a10430c>
    800050e2:	890d                	andi	a0,a0,3
    800050e4:	8082                	ret

00000000800050e6 <alsaqr_periph_padframe_periphs_pad_gpio_f_08_cfg_chip2pad_set>:
    800050e6:	1a104737          	lui	a4,0x1a104
    800050ea:	31072783          	lw	a5,784(a4) # 1a104310 <_tbss_end+0x1a104310>
    800050ee:	00a03533          	snez	a0,a0
    800050f2:	9bf9                	andi	a5,a5,-2
    800050f4:	8fc9                	or	a5,a5,a0
    800050f6:	30f72823          	sw	a5,784(a4)
    800050fa:	8082                	ret

00000000800050fc <alsaqr_periph_padframe_periphs_pad_gpio_f_08_cfg_chip2pad_get>:
    800050fc:	1a1047b7          	lui	a5,0x1a104
    80005100:	3107a503          	lw	a0,784(a5) # 1a104310 <_tbss_end+0x1a104310>
    80005104:	8905                	andi	a0,a0,1
    80005106:	8082                	ret

0000000080005108 <alsaqr_periph_padframe_periphs_pad_gpio_f_08_cfg_oen_set>:
    80005108:	1a104737          	lui	a4,0x1a104
    8000510c:	31072783          	lw	a5,784(a4) # 1a104310 <_tbss_end+0x1a104310>
    80005110:	00a03533          	snez	a0,a0
    80005114:	0015151b          	slliw	a0,a0,0x1
    80005118:	9bf5                	andi	a5,a5,-3
    8000511a:	8fc9                	or	a5,a5,a0
    8000511c:	30f72823          	sw	a5,784(a4)
    80005120:	8082                	ret

0000000080005122 <alsaqr_periph_padframe_periphs_pad_gpio_f_08_cfg_oen_get>:
    80005122:	1a1047b7          	lui	a5,0x1a104
    80005126:	3107a503          	lw	a0,784(a5) # 1a104310 <_tbss_end+0x1a104310>
    8000512a:	0015551b          	srliw	a0,a0,0x1
    8000512e:	8905                	andi	a0,a0,1
    80005130:	8082                	ret

0000000080005132 <alsaqr_periph_padframe_periphs_pad_gpio_f_08_cfg_puen_set>:
    80005132:	1a104737          	lui	a4,0x1a104
    80005136:	31072783          	lw	a5,784(a4) # 1a104310 <_tbss_end+0x1a104310>
    8000513a:	00a03533          	snez	a0,a0
    8000513e:	0025151b          	slliw	a0,a0,0x2
    80005142:	9bed                	andi	a5,a5,-5
    80005144:	8fc9                	or	a5,a5,a0
    80005146:	30f72823          	sw	a5,784(a4)
    8000514a:	8082                	ret

000000008000514c <alsaqr_periph_padframe_periphs_pad_gpio_f_08_cfg_puen_get>:
    8000514c:	1a1047b7          	lui	a5,0x1a104
    80005150:	3107a503          	lw	a0,784(a5) # 1a104310 <_tbss_end+0x1a104310>
    80005154:	0025551b          	srliw	a0,a0,0x2
    80005158:	8905                	andi	a0,a0,1
    8000515a:	8082                	ret

000000008000515c <alsaqr_periph_padframe_periphs_pad_gpio_f_08_mux_set>:
    8000515c:	890d                	andi	a0,a0,3
    8000515e:	1a1047b7          	lui	a5,0x1a104
    80005162:	30a7aa23          	sw	a0,788(a5) # 1a104314 <_tbss_end+0x1a104314>
    80005166:	8082                	ret

0000000080005168 <alsaqr_periph_padframe_periphs_pad_gpio_f_08_mux_get>:
    80005168:	1a1047b7          	lui	a5,0x1a104
    8000516c:	3147a503          	lw	a0,788(a5) # 1a104314 <_tbss_end+0x1a104314>
    80005170:	890d                	andi	a0,a0,3
    80005172:	8082                	ret

0000000080005174 <alsaqr_periph_padframe_periphs_pad_gpio_f_09_cfg_chip2pad_set>:
    80005174:	1a104737          	lui	a4,0x1a104
    80005178:	31872783          	lw	a5,792(a4) # 1a104318 <_tbss_end+0x1a104318>
    8000517c:	00a03533          	snez	a0,a0
    80005180:	9bf9                	andi	a5,a5,-2
    80005182:	8fc9                	or	a5,a5,a0
    80005184:	30f72c23          	sw	a5,792(a4)
    80005188:	8082                	ret

000000008000518a <alsaqr_periph_padframe_periphs_pad_gpio_f_09_cfg_chip2pad_get>:
    8000518a:	1a1047b7          	lui	a5,0x1a104
    8000518e:	3187a503          	lw	a0,792(a5) # 1a104318 <_tbss_end+0x1a104318>
    80005192:	8905                	andi	a0,a0,1
    80005194:	8082                	ret

0000000080005196 <alsaqr_periph_padframe_periphs_pad_gpio_f_09_cfg_oen_set>:
    80005196:	1a104737          	lui	a4,0x1a104
    8000519a:	31872783          	lw	a5,792(a4) # 1a104318 <_tbss_end+0x1a104318>
    8000519e:	00a03533          	snez	a0,a0
    800051a2:	0015151b          	slliw	a0,a0,0x1
    800051a6:	9bf5                	andi	a5,a5,-3
    800051a8:	8fc9                	or	a5,a5,a0
    800051aa:	30f72c23          	sw	a5,792(a4)
    800051ae:	8082                	ret

00000000800051b0 <alsaqr_periph_padframe_periphs_pad_gpio_f_09_cfg_oen_get>:
    800051b0:	1a1047b7          	lui	a5,0x1a104
    800051b4:	3187a503          	lw	a0,792(a5) # 1a104318 <_tbss_end+0x1a104318>
    800051b8:	0015551b          	srliw	a0,a0,0x1
    800051bc:	8905                	andi	a0,a0,1
    800051be:	8082                	ret

00000000800051c0 <alsaqr_periph_padframe_periphs_pad_gpio_f_09_cfg_puen_set>:
    800051c0:	1a104737          	lui	a4,0x1a104
    800051c4:	31872783          	lw	a5,792(a4) # 1a104318 <_tbss_end+0x1a104318>
    800051c8:	00a03533          	snez	a0,a0
    800051cc:	0025151b          	slliw	a0,a0,0x2
    800051d0:	9bed                	andi	a5,a5,-5
    800051d2:	8fc9                	or	a5,a5,a0
    800051d4:	30f72c23          	sw	a5,792(a4)
    800051d8:	8082                	ret

00000000800051da <alsaqr_periph_padframe_periphs_pad_gpio_f_09_cfg_puen_get>:
    800051da:	1a1047b7          	lui	a5,0x1a104
    800051de:	3187a503          	lw	a0,792(a5) # 1a104318 <_tbss_end+0x1a104318>
    800051e2:	0025551b          	srliw	a0,a0,0x2
    800051e6:	8905                	andi	a0,a0,1
    800051e8:	8082                	ret

00000000800051ea <alsaqr_periph_padframe_periphs_pad_gpio_f_09_mux_set>:
    800051ea:	8905                	andi	a0,a0,1
    800051ec:	1a1047b7          	lui	a5,0x1a104
    800051f0:	30a7ae23          	sw	a0,796(a5) # 1a10431c <_tbss_end+0x1a10431c>
    800051f4:	8082                	ret

00000000800051f6 <alsaqr_periph_padframe_periphs_pad_gpio_f_09_mux_get>:
    800051f6:	1a1047b7          	lui	a5,0x1a104
    800051fa:	31c7a503          	lw	a0,796(a5) # 1a10431c <_tbss_end+0x1a10431c>
    800051fe:	8905                	andi	a0,a0,1
    80005200:	8082                	ret

0000000080005202 <alsaqr_periph_padframe_periphs_pad_gpio_f_10_cfg_chip2pad_set>:
    80005202:	1a104737          	lui	a4,0x1a104
    80005206:	32072783          	lw	a5,800(a4) # 1a104320 <_tbss_end+0x1a104320>
    8000520a:	00a03533          	snez	a0,a0
    8000520e:	9bf9                	andi	a5,a5,-2
    80005210:	8fc9                	or	a5,a5,a0
    80005212:	32f72023          	sw	a5,800(a4)
    80005216:	8082                	ret

0000000080005218 <alsaqr_periph_padframe_periphs_pad_gpio_f_10_cfg_chip2pad_get>:
    80005218:	1a1047b7          	lui	a5,0x1a104
    8000521c:	3207a503          	lw	a0,800(a5) # 1a104320 <_tbss_end+0x1a104320>
    80005220:	8905                	andi	a0,a0,1
    80005222:	8082                	ret

0000000080005224 <alsaqr_periph_padframe_periphs_pad_gpio_f_10_cfg_oen_set>:
    80005224:	1a104737          	lui	a4,0x1a104
    80005228:	32072783          	lw	a5,800(a4) # 1a104320 <_tbss_end+0x1a104320>
    8000522c:	00a03533          	snez	a0,a0
    80005230:	0015151b          	slliw	a0,a0,0x1
    80005234:	9bf5                	andi	a5,a5,-3
    80005236:	8fc9                	or	a5,a5,a0
    80005238:	32f72023          	sw	a5,800(a4)
    8000523c:	8082                	ret

000000008000523e <alsaqr_periph_padframe_periphs_pad_gpio_f_10_cfg_oen_get>:
    8000523e:	1a1047b7          	lui	a5,0x1a104
    80005242:	3207a503          	lw	a0,800(a5) # 1a104320 <_tbss_end+0x1a104320>
    80005246:	0015551b          	srliw	a0,a0,0x1
    8000524a:	8905                	andi	a0,a0,1
    8000524c:	8082                	ret

000000008000524e <alsaqr_periph_padframe_periphs_pad_gpio_f_10_cfg_puen_set>:
    8000524e:	1a104737          	lui	a4,0x1a104
    80005252:	32072783          	lw	a5,800(a4) # 1a104320 <_tbss_end+0x1a104320>
    80005256:	00a03533          	snez	a0,a0
    8000525a:	0025151b          	slliw	a0,a0,0x2
    8000525e:	9bed                	andi	a5,a5,-5
    80005260:	8fc9                	or	a5,a5,a0
    80005262:	32f72023          	sw	a5,800(a4)
    80005266:	8082                	ret

0000000080005268 <alsaqr_periph_padframe_periphs_pad_gpio_f_10_cfg_puen_get>:
    80005268:	1a1047b7          	lui	a5,0x1a104
    8000526c:	3207a503          	lw	a0,800(a5) # 1a104320 <_tbss_end+0x1a104320>
    80005270:	0025551b          	srliw	a0,a0,0x2
    80005274:	8905                	andi	a0,a0,1
    80005276:	8082                	ret

0000000080005278 <alsaqr_periph_padframe_periphs_pad_gpio_f_10_mux_set>:
    80005278:	8905                	andi	a0,a0,1
    8000527a:	1a1047b7          	lui	a5,0x1a104
    8000527e:	32a7a223          	sw	a0,804(a5) # 1a104324 <_tbss_end+0x1a104324>
    80005282:	8082                	ret

0000000080005284 <alsaqr_periph_padframe_periphs_pad_gpio_f_10_mux_get>:
    80005284:	1a1047b7          	lui	a5,0x1a104
    80005288:	3247a503          	lw	a0,804(a5) # 1a104324 <_tbss_end+0x1a104324>
    8000528c:	8905                	andi	a0,a0,1
    8000528e:	8082                	ret

0000000080005290 <alsaqr_periph_padframe_periphs_pad_gpio_f_11_cfg_chip2pad_set>:
    80005290:	1a104737          	lui	a4,0x1a104
    80005294:	32872783          	lw	a5,808(a4) # 1a104328 <_tbss_end+0x1a104328>
    80005298:	00a03533          	snez	a0,a0
    8000529c:	9bf9                	andi	a5,a5,-2
    8000529e:	8fc9                	or	a5,a5,a0
    800052a0:	32f72423          	sw	a5,808(a4)
    800052a4:	8082                	ret

00000000800052a6 <alsaqr_periph_padframe_periphs_pad_gpio_f_11_cfg_chip2pad_get>:
    800052a6:	1a1047b7          	lui	a5,0x1a104
    800052aa:	3287a503          	lw	a0,808(a5) # 1a104328 <_tbss_end+0x1a104328>
    800052ae:	8905                	andi	a0,a0,1
    800052b0:	8082                	ret

00000000800052b2 <alsaqr_periph_padframe_periphs_pad_gpio_f_11_cfg_oen_set>:
    800052b2:	1a104737          	lui	a4,0x1a104
    800052b6:	32872783          	lw	a5,808(a4) # 1a104328 <_tbss_end+0x1a104328>
    800052ba:	00a03533          	snez	a0,a0
    800052be:	0015151b          	slliw	a0,a0,0x1
    800052c2:	9bf5                	andi	a5,a5,-3
    800052c4:	8fc9                	or	a5,a5,a0
    800052c6:	32f72423          	sw	a5,808(a4)
    800052ca:	8082                	ret

00000000800052cc <alsaqr_periph_padframe_periphs_pad_gpio_f_11_cfg_oen_get>:
    800052cc:	1a1047b7          	lui	a5,0x1a104
    800052d0:	3287a503          	lw	a0,808(a5) # 1a104328 <_tbss_end+0x1a104328>
    800052d4:	0015551b          	srliw	a0,a0,0x1
    800052d8:	8905                	andi	a0,a0,1
    800052da:	8082                	ret

00000000800052dc <alsaqr_periph_padframe_periphs_pad_gpio_f_11_cfg_puen_set>:
    800052dc:	1a104737          	lui	a4,0x1a104
    800052e0:	32872783          	lw	a5,808(a4) # 1a104328 <_tbss_end+0x1a104328>
    800052e4:	00a03533          	snez	a0,a0
    800052e8:	0025151b          	slliw	a0,a0,0x2
    800052ec:	9bed                	andi	a5,a5,-5
    800052ee:	8fc9                	or	a5,a5,a0
    800052f0:	32f72423          	sw	a5,808(a4)
    800052f4:	8082                	ret

00000000800052f6 <alsaqr_periph_padframe_periphs_pad_gpio_f_11_cfg_puen_get>:
    800052f6:	1a1047b7          	lui	a5,0x1a104
    800052fa:	3287a503          	lw	a0,808(a5) # 1a104328 <_tbss_end+0x1a104328>
    800052fe:	0025551b          	srliw	a0,a0,0x2
    80005302:	8905                	andi	a0,a0,1
    80005304:	8082                	ret

0000000080005306 <alsaqr_periph_padframe_periphs_pad_gpio_f_11_mux_set>:
    80005306:	8905                	andi	a0,a0,1
    80005308:	1a1047b7          	lui	a5,0x1a104
    8000530c:	32a7a623          	sw	a0,812(a5) # 1a10432c <_tbss_end+0x1a10432c>
    80005310:	8082                	ret

0000000080005312 <alsaqr_periph_padframe_periphs_pad_gpio_f_11_mux_get>:
    80005312:	1a1047b7          	lui	a5,0x1a104
    80005316:	32c7a503          	lw	a0,812(a5) # 1a10432c <_tbss_end+0x1a10432c>
    8000531a:	8905                	andi	a0,a0,1
    8000531c:	8082                	ret

000000008000531e <alsaqr_periph_padframe_periphs_pad_gpio_f_12_cfg_chip2pad_set>:
    8000531e:	1a104737          	lui	a4,0x1a104
    80005322:	33072783          	lw	a5,816(a4) # 1a104330 <_tbss_end+0x1a104330>
    80005326:	00a03533          	snez	a0,a0
    8000532a:	9bf9                	andi	a5,a5,-2
    8000532c:	8fc9                	or	a5,a5,a0
    8000532e:	32f72823          	sw	a5,816(a4)
    80005332:	8082                	ret

0000000080005334 <alsaqr_periph_padframe_periphs_pad_gpio_f_12_cfg_chip2pad_get>:
    80005334:	1a1047b7          	lui	a5,0x1a104
    80005338:	3307a503          	lw	a0,816(a5) # 1a104330 <_tbss_end+0x1a104330>
    8000533c:	8905                	andi	a0,a0,1
    8000533e:	8082                	ret

0000000080005340 <alsaqr_periph_padframe_periphs_pad_gpio_f_12_cfg_oen_set>:
    80005340:	1a104737          	lui	a4,0x1a104
    80005344:	33072783          	lw	a5,816(a4) # 1a104330 <_tbss_end+0x1a104330>
    80005348:	00a03533          	snez	a0,a0
    8000534c:	0015151b          	slliw	a0,a0,0x1
    80005350:	9bf5                	andi	a5,a5,-3
    80005352:	8fc9                	or	a5,a5,a0
    80005354:	32f72823          	sw	a5,816(a4)
    80005358:	8082                	ret

000000008000535a <alsaqr_periph_padframe_periphs_pad_gpio_f_12_cfg_oen_get>:
    8000535a:	1a1047b7          	lui	a5,0x1a104
    8000535e:	3307a503          	lw	a0,816(a5) # 1a104330 <_tbss_end+0x1a104330>
    80005362:	0015551b          	srliw	a0,a0,0x1
    80005366:	8905                	andi	a0,a0,1
    80005368:	8082                	ret

000000008000536a <alsaqr_periph_padframe_periphs_pad_gpio_f_12_cfg_puen_set>:
    8000536a:	1a104737          	lui	a4,0x1a104
    8000536e:	33072783          	lw	a5,816(a4) # 1a104330 <_tbss_end+0x1a104330>
    80005372:	00a03533          	snez	a0,a0
    80005376:	0025151b          	slliw	a0,a0,0x2
    8000537a:	9bed                	andi	a5,a5,-5
    8000537c:	8fc9                	or	a5,a5,a0
    8000537e:	32f72823          	sw	a5,816(a4)
    80005382:	8082                	ret

0000000080005384 <alsaqr_periph_padframe_periphs_pad_gpio_f_12_cfg_puen_get>:
    80005384:	1a1047b7          	lui	a5,0x1a104
    80005388:	3307a503          	lw	a0,816(a5) # 1a104330 <_tbss_end+0x1a104330>
    8000538c:	0025551b          	srliw	a0,a0,0x2
    80005390:	8905                	andi	a0,a0,1
    80005392:	8082                	ret

0000000080005394 <alsaqr_periph_padframe_periphs_pad_gpio_f_12_mux_set>:
    80005394:	8905                	andi	a0,a0,1
    80005396:	1a1047b7          	lui	a5,0x1a104
    8000539a:	32a7aa23          	sw	a0,820(a5) # 1a104334 <_tbss_end+0x1a104334>
    8000539e:	8082                	ret

00000000800053a0 <alsaqr_periph_padframe_periphs_pad_gpio_f_12_mux_get>:
    800053a0:	1a1047b7          	lui	a5,0x1a104
    800053a4:	3347a503          	lw	a0,820(a5) # 1a104334 <_tbss_end+0x1a104334>
    800053a8:	8905                	andi	a0,a0,1
    800053aa:	8082                	ret

00000000800053ac <alsaqr_periph_padframe_periphs_pad_gpio_f_13_cfg_chip2pad_set>:
    800053ac:	1a104737          	lui	a4,0x1a104
    800053b0:	33872783          	lw	a5,824(a4) # 1a104338 <_tbss_end+0x1a104338>
    800053b4:	00a03533          	snez	a0,a0
    800053b8:	9bf9                	andi	a5,a5,-2
    800053ba:	8fc9                	or	a5,a5,a0
    800053bc:	32f72c23          	sw	a5,824(a4)
    800053c0:	8082                	ret

00000000800053c2 <alsaqr_periph_padframe_periphs_pad_gpio_f_13_cfg_chip2pad_get>:
    800053c2:	1a1047b7          	lui	a5,0x1a104
    800053c6:	3387a503          	lw	a0,824(a5) # 1a104338 <_tbss_end+0x1a104338>
    800053ca:	8905                	andi	a0,a0,1
    800053cc:	8082                	ret

00000000800053ce <alsaqr_periph_padframe_periphs_pad_gpio_f_13_cfg_oen_set>:
    800053ce:	1a104737          	lui	a4,0x1a104
    800053d2:	33872783          	lw	a5,824(a4) # 1a104338 <_tbss_end+0x1a104338>
    800053d6:	00a03533          	snez	a0,a0
    800053da:	0015151b          	slliw	a0,a0,0x1
    800053de:	9bf5                	andi	a5,a5,-3
    800053e0:	8fc9                	or	a5,a5,a0
    800053e2:	32f72c23          	sw	a5,824(a4)
    800053e6:	8082                	ret

00000000800053e8 <alsaqr_periph_padframe_periphs_pad_gpio_f_13_cfg_oen_get>:
    800053e8:	1a1047b7          	lui	a5,0x1a104
    800053ec:	3387a503          	lw	a0,824(a5) # 1a104338 <_tbss_end+0x1a104338>
    800053f0:	0015551b          	srliw	a0,a0,0x1
    800053f4:	8905                	andi	a0,a0,1
    800053f6:	8082                	ret

00000000800053f8 <alsaqr_periph_padframe_periphs_pad_gpio_f_13_cfg_puen_set>:
    800053f8:	1a104737          	lui	a4,0x1a104
    800053fc:	33872783          	lw	a5,824(a4) # 1a104338 <_tbss_end+0x1a104338>
    80005400:	00a03533          	snez	a0,a0
    80005404:	0025151b          	slliw	a0,a0,0x2
    80005408:	9bed                	andi	a5,a5,-5
    8000540a:	8fc9                	or	a5,a5,a0
    8000540c:	32f72c23          	sw	a5,824(a4)
    80005410:	8082                	ret

0000000080005412 <alsaqr_periph_padframe_periphs_pad_gpio_f_13_cfg_puen_get>:
    80005412:	1a1047b7          	lui	a5,0x1a104
    80005416:	3387a503          	lw	a0,824(a5) # 1a104338 <_tbss_end+0x1a104338>
    8000541a:	0025551b          	srliw	a0,a0,0x2
    8000541e:	8905                	andi	a0,a0,1
    80005420:	8082                	ret

0000000080005422 <alsaqr_periph_padframe_periphs_pad_gpio_f_13_mux_set>:
    80005422:	8905                	andi	a0,a0,1
    80005424:	1a1047b7          	lui	a5,0x1a104
    80005428:	32a7ae23          	sw	a0,828(a5) # 1a10433c <_tbss_end+0x1a10433c>
    8000542c:	8082                	ret

000000008000542e <alsaqr_periph_padframe_periphs_pad_gpio_f_13_mux_get>:
    8000542e:	1a1047b7          	lui	a5,0x1a104
    80005432:	33c7a503          	lw	a0,828(a5) # 1a10433c <_tbss_end+0x1a10433c>
    80005436:	8905                	andi	a0,a0,1
    80005438:	8082                	ret

000000008000543a <alsaqr_periph_padframe_periphs_pad_gpio_f_14_cfg_chip2pad_set>:
    8000543a:	1a104737          	lui	a4,0x1a104
    8000543e:	34072783          	lw	a5,832(a4) # 1a104340 <_tbss_end+0x1a104340>
    80005442:	00a03533          	snez	a0,a0
    80005446:	9bf9                	andi	a5,a5,-2
    80005448:	8fc9                	or	a5,a5,a0
    8000544a:	34f72023          	sw	a5,832(a4)
    8000544e:	8082                	ret

0000000080005450 <alsaqr_periph_padframe_periphs_pad_gpio_f_14_cfg_chip2pad_get>:
    80005450:	1a1047b7          	lui	a5,0x1a104
    80005454:	3407a503          	lw	a0,832(a5) # 1a104340 <_tbss_end+0x1a104340>
    80005458:	8905                	andi	a0,a0,1
    8000545a:	8082                	ret

000000008000545c <alsaqr_periph_padframe_periphs_pad_gpio_f_14_cfg_oen_set>:
    8000545c:	1a104737          	lui	a4,0x1a104
    80005460:	34072783          	lw	a5,832(a4) # 1a104340 <_tbss_end+0x1a104340>
    80005464:	00a03533          	snez	a0,a0
    80005468:	0015151b          	slliw	a0,a0,0x1
    8000546c:	9bf5                	andi	a5,a5,-3
    8000546e:	8fc9                	or	a5,a5,a0
    80005470:	34f72023          	sw	a5,832(a4)
    80005474:	8082                	ret

0000000080005476 <alsaqr_periph_padframe_periphs_pad_gpio_f_14_cfg_oen_get>:
    80005476:	1a1047b7          	lui	a5,0x1a104
    8000547a:	3407a503          	lw	a0,832(a5) # 1a104340 <_tbss_end+0x1a104340>
    8000547e:	0015551b          	srliw	a0,a0,0x1
    80005482:	8905                	andi	a0,a0,1
    80005484:	8082                	ret

0000000080005486 <alsaqr_periph_padframe_periphs_pad_gpio_f_14_cfg_puen_set>:
    80005486:	1a104737          	lui	a4,0x1a104
    8000548a:	34072783          	lw	a5,832(a4) # 1a104340 <_tbss_end+0x1a104340>
    8000548e:	00a03533          	snez	a0,a0
    80005492:	0025151b          	slliw	a0,a0,0x2
    80005496:	9bed                	andi	a5,a5,-5
    80005498:	8fc9                	or	a5,a5,a0
    8000549a:	34f72023          	sw	a5,832(a4)
    8000549e:	8082                	ret

00000000800054a0 <alsaqr_periph_padframe_periphs_pad_gpio_f_14_cfg_puen_get>:
    800054a0:	1a1047b7          	lui	a5,0x1a104
    800054a4:	3407a503          	lw	a0,832(a5) # 1a104340 <_tbss_end+0x1a104340>
    800054a8:	0025551b          	srliw	a0,a0,0x2
    800054ac:	8905                	andi	a0,a0,1
    800054ae:	8082                	ret

00000000800054b0 <alsaqr_periph_padframe_periphs_pad_gpio_f_14_mux_set>:
    800054b0:	8905                	andi	a0,a0,1
    800054b2:	1a1047b7          	lui	a5,0x1a104
    800054b6:	34a7a223          	sw	a0,836(a5) # 1a104344 <_tbss_end+0x1a104344>
    800054ba:	8082                	ret

00000000800054bc <alsaqr_periph_padframe_periphs_pad_gpio_f_14_mux_get>:
    800054bc:	1a1047b7          	lui	a5,0x1a104
    800054c0:	3447a503          	lw	a0,836(a5) # 1a104344 <_tbss_end+0x1a104344>
    800054c4:	8905                	andi	a0,a0,1
    800054c6:	8082                	ret

00000000800054c8 <alsaqr_periph_padframe_periphs_pad_gpio_f_15_cfg_chip2pad_set>:
    800054c8:	1a104737          	lui	a4,0x1a104
    800054cc:	34872783          	lw	a5,840(a4) # 1a104348 <_tbss_end+0x1a104348>
    800054d0:	00a03533          	snez	a0,a0
    800054d4:	9bf9                	andi	a5,a5,-2
    800054d6:	8fc9                	or	a5,a5,a0
    800054d8:	34f72423          	sw	a5,840(a4)
    800054dc:	8082                	ret

00000000800054de <alsaqr_periph_padframe_periphs_pad_gpio_f_15_cfg_chip2pad_get>:
    800054de:	1a1047b7          	lui	a5,0x1a104
    800054e2:	3487a503          	lw	a0,840(a5) # 1a104348 <_tbss_end+0x1a104348>
    800054e6:	8905                	andi	a0,a0,1
    800054e8:	8082                	ret

00000000800054ea <alsaqr_periph_padframe_periphs_pad_gpio_f_15_cfg_oen_set>:
    800054ea:	1a104737          	lui	a4,0x1a104
    800054ee:	34872783          	lw	a5,840(a4) # 1a104348 <_tbss_end+0x1a104348>
    800054f2:	00a03533          	snez	a0,a0
    800054f6:	0015151b          	slliw	a0,a0,0x1
    800054fa:	9bf5                	andi	a5,a5,-3
    800054fc:	8fc9                	or	a5,a5,a0
    800054fe:	34f72423          	sw	a5,840(a4)
    80005502:	8082                	ret

0000000080005504 <alsaqr_periph_padframe_periphs_pad_gpio_f_15_cfg_oen_get>:
    80005504:	1a1047b7          	lui	a5,0x1a104
    80005508:	3487a503          	lw	a0,840(a5) # 1a104348 <_tbss_end+0x1a104348>
    8000550c:	0015551b          	srliw	a0,a0,0x1
    80005510:	8905                	andi	a0,a0,1
    80005512:	8082                	ret

0000000080005514 <alsaqr_periph_padframe_periphs_pad_gpio_f_15_cfg_puen_set>:
    80005514:	1a104737          	lui	a4,0x1a104
    80005518:	34872783          	lw	a5,840(a4) # 1a104348 <_tbss_end+0x1a104348>
    8000551c:	00a03533          	snez	a0,a0
    80005520:	0025151b          	slliw	a0,a0,0x2
    80005524:	9bed                	andi	a5,a5,-5
    80005526:	8fc9                	or	a5,a5,a0
    80005528:	34f72423          	sw	a5,840(a4)
    8000552c:	8082                	ret

000000008000552e <alsaqr_periph_padframe_periphs_pad_gpio_f_15_cfg_puen_get>:
    8000552e:	1a1047b7          	lui	a5,0x1a104
    80005532:	3487a503          	lw	a0,840(a5) # 1a104348 <_tbss_end+0x1a104348>
    80005536:	0025551b          	srliw	a0,a0,0x2
    8000553a:	8905                	andi	a0,a0,1
    8000553c:	8082                	ret

000000008000553e <alsaqr_periph_padframe_periphs_pad_gpio_f_15_mux_set>:
    8000553e:	8905                	andi	a0,a0,1
    80005540:	1a1047b7          	lui	a5,0x1a104
    80005544:	34a7a623          	sw	a0,844(a5) # 1a10434c <_tbss_end+0x1a10434c>
    80005548:	8082                	ret

000000008000554a <alsaqr_periph_padframe_periphs_pad_gpio_f_15_mux_get>:
    8000554a:	1a1047b7          	lui	a5,0x1a104
    8000554e:	34c7a503          	lw	a0,844(a5) # 1a10434c <_tbss_end+0x1a10434c>
    80005552:	8905                	andi	a0,a0,1
    80005554:	8082                	ret

0000000080005556 <alsaqr_periph_padframe_periphs_pad_gpio_f_16_cfg_chip2pad_set>:
    80005556:	1a104737          	lui	a4,0x1a104
    8000555a:	35072783          	lw	a5,848(a4) # 1a104350 <_tbss_end+0x1a104350>
    8000555e:	00a03533          	snez	a0,a0
    80005562:	9bf9                	andi	a5,a5,-2
    80005564:	8fc9                	or	a5,a5,a0
    80005566:	34f72823          	sw	a5,848(a4)
    8000556a:	8082                	ret

000000008000556c <alsaqr_periph_padframe_periphs_pad_gpio_f_16_cfg_chip2pad_get>:
    8000556c:	1a1047b7          	lui	a5,0x1a104
    80005570:	3507a503          	lw	a0,848(a5) # 1a104350 <_tbss_end+0x1a104350>
    80005574:	8905                	andi	a0,a0,1
    80005576:	8082                	ret

0000000080005578 <alsaqr_periph_padframe_periphs_pad_gpio_f_16_cfg_oen_set>:
    80005578:	1a104737          	lui	a4,0x1a104
    8000557c:	35072783          	lw	a5,848(a4) # 1a104350 <_tbss_end+0x1a104350>
    80005580:	00a03533          	snez	a0,a0
    80005584:	0015151b          	slliw	a0,a0,0x1
    80005588:	9bf5                	andi	a5,a5,-3
    8000558a:	8fc9                	or	a5,a5,a0
    8000558c:	34f72823          	sw	a5,848(a4)
    80005590:	8082                	ret

0000000080005592 <alsaqr_periph_padframe_periphs_pad_gpio_f_16_cfg_oen_get>:
    80005592:	1a1047b7          	lui	a5,0x1a104
    80005596:	3507a503          	lw	a0,848(a5) # 1a104350 <_tbss_end+0x1a104350>
    8000559a:	0015551b          	srliw	a0,a0,0x1
    8000559e:	8905                	andi	a0,a0,1
    800055a0:	8082                	ret

00000000800055a2 <alsaqr_periph_padframe_periphs_pad_gpio_f_16_cfg_puen_set>:
    800055a2:	1a104737          	lui	a4,0x1a104
    800055a6:	35072783          	lw	a5,848(a4) # 1a104350 <_tbss_end+0x1a104350>
    800055aa:	00a03533          	snez	a0,a0
    800055ae:	0025151b          	slliw	a0,a0,0x2
    800055b2:	9bed                	andi	a5,a5,-5
    800055b4:	8fc9                	or	a5,a5,a0
    800055b6:	34f72823          	sw	a5,848(a4)
    800055ba:	8082                	ret

00000000800055bc <alsaqr_periph_padframe_periphs_pad_gpio_f_16_cfg_puen_get>:
    800055bc:	1a1047b7          	lui	a5,0x1a104
    800055c0:	3507a503          	lw	a0,848(a5) # 1a104350 <_tbss_end+0x1a104350>
    800055c4:	0025551b          	srliw	a0,a0,0x2
    800055c8:	8905                	andi	a0,a0,1
    800055ca:	8082                	ret

00000000800055cc <alsaqr_periph_padframe_periphs_pad_gpio_f_16_mux_set>:
    800055cc:	8905                	andi	a0,a0,1
    800055ce:	1a1047b7          	lui	a5,0x1a104
    800055d2:	34a7aa23          	sw	a0,852(a5) # 1a104354 <_tbss_end+0x1a104354>
    800055d6:	8082                	ret

00000000800055d8 <alsaqr_periph_padframe_periphs_pad_gpio_f_16_mux_get>:
    800055d8:	1a1047b7          	lui	a5,0x1a104
    800055dc:	3547a503          	lw	a0,852(a5) # 1a104354 <_tbss_end+0x1a104354>
    800055e0:	8905                	andi	a0,a0,1
    800055e2:	8082                	ret

00000000800055e4 <alsaqr_periph_padframe_periphs_pad_gpio_f_17_cfg_chip2pad_set>:
    800055e4:	1a104737          	lui	a4,0x1a104
    800055e8:	35872783          	lw	a5,856(a4) # 1a104358 <_tbss_end+0x1a104358>
    800055ec:	00a03533          	snez	a0,a0
    800055f0:	9bf9                	andi	a5,a5,-2
    800055f2:	8fc9                	or	a5,a5,a0
    800055f4:	34f72c23          	sw	a5,856(a4)
    800055f8:	8082                	ret

00000000800055fa <alsaqr_periph_padframe_periphs_pad_gpio_f_17_cfg_chip2pad_get>:
    800055fa:	1a1047b7          	lui	a5,0x1a104
    800055fe:	3587a503          	lw	a0,856(a5) # 1a104358 <_tbss_end+0x1a104358>
    80005602:	8905                	andi	a0,a0,1
    80005604:	8082                	ret

0000000080005606 <alsaqr_periph_padframe_periphs_pad_gpio_f_17_cfg_oen_set>:
    80005606:	1a104737          	lui	a4,0x1a104
    8000560a:	35872783          	lw	a5,856(a4) # 1a104358 <_tbss_end+0x1a104358>
    8000560e:	00a03533          	snez	a0,a0
    80005612:	0015151b          	slliw	a0,a0,0x1
    80005616:	9bf5                	andi	a5,a5,-3
    80005618:	8fc9                	or	a5,a5,a0
    8000561a:	34f72c23          	sw	a5,856(a4)
    8000561e:	8082                	ret

0000000080005620 <alsaqr_periph_padframe_periphs_pad_gpio_f_17_cfg_oen_get>:
    80005620:	1a1047b7          	lui	a5,0x1a104
    80005624:	3587a503          	lw	a0,856(a5) # 1a104358 <_tbss_end+0x1a104358>
    80005628:	0015551b          	srliw	a0,a0,0x1
    8000562c:	8905                	andi	a0,a0,1
    8000562e:	8082                	ret

0000000080005630 <alsaqr_periph_padframe_periphs_pad_gpio_f_17_cfg_puen_set>:
    80005630:	1a104737          	lui	a4,0x1a104
    80005634:	35872783          	lw	a5,856(a4) # 1a104358 <_tbss_end+0x1a104358>
    80005638:	00a03533          	snez	a0,a0
    8000563c:	0025151b          	slliw	a0,a0,0x2
    80005640:	9bed                	andi	a5,a5,-5
    80005642:	8fc9                	or	a5,a5,a0
    80005644:	34f72c23          	sw	a5,856(a4)
    80005648:	8082                	ret

000000008000564a <alsaqr_periph_padframe_periphs_pad_gpio_f_17_cfg_puen_get>:
    8000564a:	1a1047b7          	lui	a5,0x1a104
    8000564e:	3587a503          	lw	a0,856(a5) # 1a104358 <_tbss_end+0x1a104358>
    80005652:	0025551b          	srliw	a0,a0,0x2
    80005656:	8905                	andi	a0,a0,1
    80005658:	8082                	ret

000000008000565a <alsaqr_periph_padframe_periphs_pad_gpio_f_17_mux_set>:
    8000565a:	8905                	andi	a0,a0,1
    8000565c:	1a1047b7          	lui	a5,0x1a104
    80005660:	34a7ae23          	sw	a0,860(a5) # 1a10435c <_tbss_end+0x1a10435c>
    80005664:	8082                	ret

0000000080005666 <alsaqr_periph_padframe_periphs_pad_gpio_f_17_mux_get>:
    80005666:	1a1047b7          	lui	a5,0x1a104
    8000566a:	35c7a503          	lw	a0,860(a5) # 1a10435c <_tbss_end+0x1a10435c>
    8000566e:	8905                	andi	a0,a0,1
    80005670:	8082                	ret

0000000080005672 <alsaqr_periph_padframe_periphs_pad_gpio_f_18_cfg_chip2pad_set>:
    80005672:	1a104737          	lui	a4,0x1a104
    80005676:	36072783          	lw	a5,864(a4) # 1a104360 <_tbss_end+0x1a104360>
    8000567a:	00a03533          	snez	a0,a0
    8000567e:	9bf9                	andi	a5,a5,-2
    80005680:	8fc9                	or	a5,a5,a0
    80005682:	36f72023          	sw	a5,864(a4)
    80005686:	8082                	ret

0000000080005688 <alsaqr_periph_padframe_periphs_pad_gpio_f_18_cfg_chip2pad_get>:
    80005688:	1a1047b7          	lui	a5,0x1a104
    8000568c:	3607a503          	lw	a0,864(a5) # 1a104360 <_tbss_end+0x1a104360>
    80005690:	8905                	andi	a0,a0,1
    80005692:	8082                	ret

0000000080005694 <alsaqr_periph_padframe_periphs_pad_gpio_f_18_cfg_oen_set>:
    80005694:	1a104737          	lui	a4,0x1a104
    80005698:	36072783          	lw	a5,864(a4) # 1a104360 <_tbss_end+0x1a104360>
    8000569c:	00a03533          	snez	a0,a0
    800056a0:	0015151b          	slliw	a0,a0,0x1
    800056a4:	9bf5                	andi	a5,a5,-3
    800056a6:	8fc9                	or	a5,a5,a0
    800056a8:	36f72023          	sw	a5,864(a4)
    800056ac:	8082                	ret

00000000800056ae <alsaqr_periph_padframe_periphs_pad_gpio_f_18_cfg_oen_get>:
    800056ae:	1a1047b7          	lui	a5,0x1a104
    800056b2:	3607a503          	lw	a0,864(a5) # 1a104360 <_tbss_end+0x1a104360>
    800056b6:	0015551b          	srliw	a0,a0,0x1
    800056ba:	8905                	andi	a0,a0,1
    800056bc:	8082                	ret

00000000800056be <alsaqr_periph_padframe_periphs_pad_gpio_f_18_cfg_puen_set>:
    800056be:	1a104737          	lui	a4,0x1a104
    800056c2:	36072783          	lw	a5,864(a4) # 1a104360 <_tbss_end+0x1a104360>
    800056c6:	00a03533          	snez	a0,a0
    800056ca:	0025151b          	slliw	a0,a0,0x2
    800056ce:	9bed                	andi	a5,a5,-5
    800056d0:	8fc9                	or	a5,a5,a0
    800056d2:	36f72023          	sw	a5,864(a4)
    800056d6:	8082                	ret

00000000800056d8 <alsaqr_periph_padframe_periphs_pad_gpio_f_18_cfg_puen_get>:
    800056d8:	1a1047b7          	lui	a5,0x1a104
    800056dc:	3607a503          	lw	a0,864(a5) # 1a104360 <_tbss_end+0x1a104360>
    800056e0:	0025551b          	srliw	a0,a0,0x2
    800056e4:	8905                	andi	a0,a0,1
    800056e6:	8082                	ret

00000000800056e8 <alsaqr_periph_padframe_periphs_pad_gpio_f_18_mux_set>:
    800056e8:	8905                	andi	a0,a0,1
    800056ea:	1a1047b7          	lui	a5,0x1a104
    800056ee:	36a7a223          	sw	a0,868(a5) # 1a104364 <_tbss_end+0x1a104364>
    800056f2:	8082                	ret

00000000800056f4 <alsaqr_periph_padframe_periphs_pad_gpio_f_18_mux_get>:
    800056f4:	1a1047b7          	lui	a5,0x1a104
    800056f8:	3647a503          	lw	a0,868(a5) # 1a104364 <_tbss_end+0x1a104364>
    800056fc:	8905                	andi	a0,a0,1
    800056fe:	8082                	ret

0000000080005700 <alsaqr_periph_padframe_periphs_pad_gpio_f_19_cfg_chip2pad_set>:
    80005700:	1a104737          	lui	a4,0x1a104
    80005704:	36872783          	lw	a5,872(a4) # 1a104368 <_tbss_end+0x1a104368>
    80005708:	00a03533          	snez	a0,a0
    8000570c:	9bf9                	andi	a5,a5,-2
    8000570e:	8fc9                	or	a5,a5,a0
    80005710:	36f72423          	sw	a5,872(a4)
    80005714:	8082                	ret

0000000080005716 <alsaqr_periph_padframe_periphs_pad_gpio_f_19_cfg_chip2pad_get>:
    80005716:	1a1047b7          	lui	a5,0x1a104
    8000571a:	3687a503          	lw	a0,872(a5) # 1a104368 <_tbss_end+0x1a104368>
    8000571e:	8905                	andi	a0,a0,1
    80005720:	8082                	ret

0000000080005722 <alsaqr_periph_padframe_periphs_pad_gpio_f_19_cfg_oen_set>:
    80005722:	1a104737          	lui	a4,0x1a104
    80005726:	36872783          	lw	a5,872(a4) # 1a104368 <_tbss_end+0x1a104368>
    8000572a:	00a03533          	snez	a0,a0
    8000572e:	0015151b          	slliw	a0,a0,0x1
    80005732:	9bf5                	andi	a5,a5,-3
    80005734:	8fc9                	or	a5,a5,a0
    80005736:	36f72423          	sw	a5,872(a4)
    8000573a:	8082                	ret

000000008000573c <alsaqr_periph_padframe_periphs_pad_gpio_f_19_cfg_oen_get>:
    8000573c:	1a1047b7          	lui	a5,0x1a104
    80005740:	3687a503          	lw	a0,872(a5) # 1a104368 <_tbss_end+0x1a104368>
    80005744:	0015551b          	srliw	a0,a0,0x1
    80005748:	8905                	andi	a0,a0,1
    8000574a:	8082                	ret

000000008000574c <alsaqr_periph_padframe_periphs_pad_gpio_f_19_cfg_puen_set>:
    8000574c:	1a104737          	lui	a4,0x1a104
    80005750:	36872783          	lw	a5,872(a4) # 1a104368 <_tbss_end+0x1a104368>
    80005754:	00a03533          	snez	a0,a0
    80005758:	0025151b          	slliw	a0,a0,0x2
    8000575c:	9bed                	andi	a5,a5,-5
    8000575e:	8fc9                	or	a5,a5,a0
    80005760:	36f72423          	sw	a5,872(a4)
    80005764:	8082                	ret

0000000080005766 <alsaqr_periph_padframe_periphs_pad_gpio_f_19_cfg_puen_get>:
    80005766:	1a1047b7          	lui	a5,0x1a104
    8000576a:	3687a503          	lw	a0,872(a5) # 1a104368 <_tbss_end+0x1a104368>
    8000576e:	0025551b          	srliw	a0,a0,0x2
    80005772:	8905                	andi	a0,a0,1
    80005774:	8082                	ret

0000000080005776 <alsaqr_periph_padframe_periphs_pad_gpio_f_19_mux_set>:
    80005776:	8905                	andi	a0,a0,1
    80005778:	1a1047b7          	lui	a5,0x1a104
    8000577c:	36a7a623          	sw	a0,876(a5) # 1a10436c <_tbss_end+0x1a10436c>
    80005780:	8082                	ret

0000000080005782 <alsaqr_periph_padframe_periphs_pad_gpio_f_19_mux_get>:
    80005782:	1a1047b7          	lui	a5,0x1a104
    80005786:	36c7a503          	lw	a0,876(a5) # 1a10436c <_tbss_end+0x1a10436c>
    8000578a:	8905                	andi	a0,a0,1
    8000578c:	8082                	ret

000000008000578e <alsaqr_periph_padframe_periphs_pad_gpio_f_20_cfg_chip2pad_set>:
    8000578e:	1a104737          	lui	a4,0x1a104
    80005792:	37072783          	lw	a5,880(a4) # 1a104370 <_tbss_end+0x1a104370>
    80005796:	00a03533          	snez	a0,a0
    8000579a:	9bf9                	andi	a5,a5,-2
    8000579c:	8fc9                	or	a5,a5,a0
    8000579e:	36f72823          	sw	a5,880(a4)
    800057a2:	8082                	ret

00000000800057a4 <alsaqr_periph_padframe_periphs_pad_gpio_f_20_cfg_chip2pad_get>:
    800057a4:	1a1047b7          	lui	a5,0x1a104
    800057a8:	3707a503          	lw	a0,880(a5) # 1a104370 <_tbss_end+0x1a104370>
    800057ac:	8905                	andi	a0,a0,1
    800057ae:	8082                	ret

00000000800057b0 <alsaqr_periph_padframe_periphs_pad_gpio_f_20_cfg_oen_set>:
    800057b0:	1a104737          	lui	a4,0x1a104
    800057b4:	37072783          	lw	a5,880(a4) # 1a104370 <_tbss_end+0x1a104370>
    800057b8:	00a03533          	snez	a0,a0
    800057bc:	0015151b          	slliw	a0,a0,0x1
    800057c0:	9bf5                	andi	a5,a5,-3
    800057c2:	8fc9                	or	a5,a5,a0
    800057c4:	36f72823          	sw	a5,880(a4)
    800057c8:	8082                	ret

00000000800057ca <alsaqr_periph_padframe_periphs_pad_gpio_f_20_cfg_oen_get>:
    800057ca:	1a1047b7          	lui	a5,0x1a104
    800057ce:	3707a503          	lw	a0,880(a5) # 1a104370 <_tbss_end+0x1a104370>
    800057d2:	0015551b          	srliw	a0,a0,0x1
    800057d6:	8905                	andi	a0,a0,1
    800057d8:	8082                	ret

00000000800057da <alsaqr_periph_padframe_periphs_pad_gpio_f_20_cfg_puen_set>:
    800057da:	1a104737          	lui	a4,0x1a104
    800057de:	37072783          	lw	a5,880(a4) # 1a104370 <_tbss_end+0x1a104370>
    800057e2:	00a03533          	snez	a0,a0
    800057e6:	0025151b          	slliw	a0,a0,0x2
    800057ea:	9bed                	andi	a5,a5,-5
    800057ec:	8fc9                	or	a5,a5,a0
    800057ee:	36f72823          	sw	a5,880(a4)
    800057f2:	8082                	ret

00000000800057f4 <alsaqr_periph_padframe_periphs_pad_gpio_f_20_cfg_puen_get>:
    800057f4:	1a1047b7          	lui	a5,0x1a104
    800057f8:	3707a503          	lw	a0,880(a5) # 1a104370 <_tbss_end+0x1a104370>
    800057fc:	0025551b          	srliw	a0,a0,0x2
    80005800:	8905                	andi	a0,a0,1
    80005802:	8082                	ret

0000000080005804 <alsaqr_periph_padframe_periphs_pad_gpio_f_20_mux_set>:
    80005804:	8905                	andi	a0,a0,1
    80005806:	1a1047b7          	lui	a5,0x1a104
    8000580a:	36a7aa23          	sw	a0,884(a5) # 1a104374 <_tbss_end+0x1a104374>
    8000580e:	8082                	ret

0000000080005810 <alsaqr_periph_padframe_periphs_pad_gpio_f_20_mux_get>:
    80005810:	1a1047b7          	lui	a5,0x1a104
    80005814:	3747a503          	lw	a0,884(a5) # 1a104374 <_tbss_end+0x1a104374>
    80005818:	8905                	andi	a0,a0,1
    8000581a:	8082                	ret

000000008000581c <alsaqr_periph_padframe_periphs_pad_gpio_f_21_cfg_chip2pad_set>:
    8000581c:	1a104737          	lui	a4,0x1a104
    80005820:	37872783          	lw	a5,888(a4) # 1a104378 <_tbss_end+0x1a104378>
    80005824:	00a03533          	snez	a0,a0
    80005828:	9bf9                	andi	a5,a5,-2
    8000582a:	8fc9                	or	a5,a5,a0
    8000582c:	36f72c23          	sw	a5,888(a4)
    80005830:	8082                	ret

0000000080005832 <alsaqr_periph_padframe_periphs_pad_gpio_f_21_cfg_chip2pad_get>:
    80005832:	1a1047b7          	lui	a5,0x1a104
    80005836:	3787a503          	lw	a0,888(a5) # 1a104378 <_tbss_end+0x1a104378>
    8000583a:	8905                	andi	a0,a0,1
    8000583c:	8082                	ret

000000008000583e <alsaqr_periph_padframe_periphs_pad_gpio_f_21_cfg_oen_set>:
    8000583e:	1a104737          	lui	a4,0x1a104
    80005842:	37872783          	lw	a5,888(a4) # 1a104378 <_tbss_end+0x1a104378>
    80005846:	00a03533          	snez	a0,a0
    8000584a:	0015151b          	slliw	a0,a0,0x1
    8000584e:	9bf5                	andi	a5,a5,-3
    80005850:	8fc9                	or	a5,a5,a0
    80005852:	36f72c23          	sw	a5,888(a4)
    80005856:	8082                	ret

0000000080005858 <alsaqr_periph_padframe_periphs_pad_gpio_f_21_cfg_oen_get>:
    80005858:	1a1047b7          	lui	a5,0x1a104
    8000585c:	3787a503          	lw	a0,888(a5) # 1a104378 <_tbss_end+0x1a104378>
    80005860:	0015551b          	srliw	a0,a0,0x1
    80005864:	8905                	andi	a0,a0,1
    80005866:	8082                	ret

0000000080005868 <alsaqr_periph_padframe_periphs_pad_gpio_f_21_cfg_puen_set>:
    80005868:	1a104737          	lui	a4,0x1a104
    8000586c:	37872783          	lw	a5,888(a4) # 1a104378 <_tbss_end+0x1a104378>
    80005870:	00a03533          	snez	a0,a0
    80005874:	0025151b          	slliw	a0,a0,0x2
    80005878:	9bed                	andi	a5,a5,-5
    8000587a:	8fc9                	or	a5,a5,a0
    8000587c:	36f72c23          	sw	a5,888(a4)
    80005880:	8082                	ret

0000000080005882 <alsaqr_periph_padframe_periphs_pad_gpio_f_21_cfg_puen_get>:
    80005882:	1a1047b7          	lui	a5,0x1a104
    80005886:	3787a503          	lw	a0,888(a5) # 1a104378 <_tbss_end+0x1a104378>
    8000588a:	0025551b          	srliw	a0,a0,0x2
    8000588e:	8905                	andi	a0,a0,1
    80005890:	8082                	ret

0000000080005892 <alsaqr_periph_padframe_periphs_pad_gpio_f_21_mux_set>:
    80005892:	8905                	andi	a0,a0,1
    80005894:	1a1047b7          	lui	a5,0x1a104
    80005898:	36a7ae23          	sw	a0,892(a5) # 1a10437c <_tbss_end+0x1a10437c>
    8000589c:	8082                	ret

000000008000589e <alsaqr_periph_padframe_periphs_pad_gpio_f_21_mux_get>:
    8000589e:	1a1047b7          	lui	a5,0x1a104
    800058a2:	37c7a503          	lw	a0,892(a5) # 1a10437c <_tbss_end+0x1a10437c>
    800058a6:	8905                	andi	a0,a0,1
    800058a8:	8082                	ret

00000000800058aa <alsaqr_periph_padframe_periphs_pad_gpio_f_22_cfg_chip2pad_set>:
    800058aa:	1a104737          	lui	a4,0x1a104
    800058ae:	38072783          	lw	a5,896(a4) # 1a104380 <_tbss_end+0x1a104380>
    800058b2:	00a03533          	snez	a0,a0
    800058b6:	9bf9                	andi	a5,a5,-2
    800058b8:	8fc9                	or	a5,a5,a0
    800058ba:	38f72023          	sw	a5,896(a4)
    800058be:	8082                	ret

00000000800058c0 <alsaqr_periph_padframe_periphs_pad_gpio_f_22_cfg_chip2pad_get>:
    800058c0:	1a1047b7          	lui	a5,0x1a104
    800058c4:	3807a503          	lw	a0,896(a5) # 1a104380 <_tbss_end+0x1a104380>
    800058c8:	8905                	andi	a0,a0,1
    800058ca:	8082                	ret

00000000800058cc <alsaqr_periph_padframe_periphs_pad_gpio_f_22_cfg_oen_set>:
    800058cc:	1a104737          	lui	a4,0x1a104
    800058d0:	38072783          	lw	a5,896(a4) # 1a104380 <_tbss_end+0x1a104380>
    800058d4:	00a03533          	snez	a0,a0
    800058d8:	0015151b          	slliw	a0,a0,0x1
    800058dc:	9bf5                	andi	a5,a5,-3
    800058de:	8fc9                	or	a5,a5,a0
    800058e0:	38f72023          	sw	a5,896(a4)
    800058e4:	8082                	ret

00000000800058e6 <alsaqr_periph_padframe_periphs_pad_gpio_f_22_cfg_oen_get>:
    800058e6:	1a1047b7          	lui	a5,0x1a104
    800058ea:	3807a503          	lw	a0,896(a5) # 1a104380 <_tbss_end+0x1a104380>
    800058ee:	0015551b          	srliw	a0,a0,0x1
    800058f2:	8905                	andi	a0,a0,1
    800058f4:	8082                	ret

00000000800058f6 <alsaqr_periph_padframe_periphs_pad_gpio_f_22_cfg_puen_set>:
    800058f6:	1a104737          	lui	a4,0x1a104
    800058fa:	38072783          	lw	a5,896(a4) # 1a104380 <_tbss_end+0x1a104380>
    800058fe:	00a03533          	snez	a0,a0
    80005902:	0025151b          	slliw	a0,a0,0x2
    80005906:	9bed                	andi	a5,a5,-5
    80005908:	8fc9                	or	a5,a5,a0
    8000590a:	38f72023          	sw	a5,896(a4)
    8000590e:	8082                	ret

0000000080005910 <alsaqr_periph_padframe_periphs_pad_gpio_f_22_cfg_puen_get>:
    80005910:	1a1047b7          	lui	a5,0x1a104
    80005914:	3807a503          	lw	a0,896(a5) # 1a104380 <_tbss_end+0x1a104380>
    80005918:	0025551b          	srliw	a0,a0,0x2
    8000591c:	8905                	andi	a0,a0,1
    8000591e:	8082                	ret

0000000080005920 <alsaqr_periph_padframe_periphs_pad_gpio_f_22_mux_set>:
    80005920:	8905                	andi	a0,a0,1
    80005922:	1a1047b7          	lui	a5,0x1a104
    80005926:	38a7a223          	sw	a0,900(a5) # 1a104384 <_tbss_end+0x1a104384>
    8000592a:	8082                	ret

000000008000592c <alsaqr_periph_padframe_periphs_pad_gpio_f_22_mux_get>:
    8000592c:	1a1047b7          	lui	a5,0x1a104
    80005930:	3847a503          	lw	a0,900(a5) # 1a104384 <_tbss_end+0x1a104384>
    80005934:	8905                	andi	a0,a0,1
    80005936:	8082                	ret

0000000080005938 <alsaqr_periph_padframe_periphs_pad_gpio_f_23_cfg_chip2pad_set>:
    80005938:	1a104737          	lui	a4,0x1a104
    8000593c:	38872783          	lw	a5,904(a4) # 1a104388 <_tbss_end+0x1a104388>
    80005940:	00a03533          	snez	a0,a0
    80005944:	9bf9                	andi	a5,a5,-2
    80005946:	8fc9                	or	a5,a5,a0
    80005948:	38f72423          	sw	a5,904(a4)
    8000594c:	8082                	ret

000000008000594e <alsaqr_periph_padframe_periphs_pad_gpio_f_23_cfg_chip2pad_get>:
    8000594e:	1a1047b7          	lui	a5,0x1a104
    80005952:	3887a503          	lw	a0,904(a5) # 1a104388 <_tbss_end+0x1a104388>
    80005956:	8905                	andi	a0,a0,1
    80005958:	8082                	ret

000000008000595a <alsaqr_periph_padframe_periphs_pad_gpio_f_23_cfg_oen_set>:
    8000595a:	1a104737          	lui	a4,0x1a104
    8000595e:	38872783          	lw	a5,904(a4) # 1a104388 <_tbss_end+0x1a104388>
    80005962:	00a03533          	snez	a0,a0
    80005966:	0015151b          	slliw	a0,a0,0x1
    8000596a:	9bf5                	andi	a5,a5,-3
    8000596c:	8fc9                	or	a5,a5,a0
    8000596e:	38f72423          	sw	a5,904(a4)
    80005972:	8082                	ret

0000000080005974 <alsaqr_periph_padframe_periphs_pad_gpio_f_23_cfg_oen_get>:
    80005974:	1a1047b7          	lui	a5,0x1a104
    80005978:	3887a503          	lw	a0,904(a5) # 1a104388 <_tbss_end+0x1a104388>
    8000597c:	0015551b          	srliw	a0,a0,0x1
    80005980:	8905                	andi	a0,a0,1
    80005982:	8082                	ret

0000000080005984 <alsaqr_periph_padframe_periphs_pad_gpio_f_23_cfg_puen_set>:
    80005984:	1a104737          	lui	a4,0x1a104
    80005988:	38872783          	lw	a5,904(a4) # 1a104388 <_tbss_end+0x1a104388>
    8000598c:	00a03533          	snez	a0,a0
    80005990:	0025151b          	slliw	a0,a0,0x2
    80005994:	9bed                	andi	a5,a5,-5
    80005996:	8fc9                	or	a5,a5,a0
    80005998:	38f72423          	sw	a5,904(a4)
    8000599c:	8082                	ret

000000008000599e <alsaqr_periph_padframe_periphs_pad_gpio_f_23_cfg_puen_get>:
    8000599e:	1a1047b7          	lui	a5,0x1a104
    800059a2:	3887a503          	lw	a0,904(a5) # 1a104388 <_tbss_end+0x1a104388>
    800059a6:	0025551b          	srliw	a0,a0,0x2
    800059aa:	8905                	andi	a0,a0,1
    800059ac:	8082                	ret

00000000800059ae <alsaqr_periph_padframe_periphs_pad_gpio_f_23_mux_set>:
    800059ae:	8905                	andi	a0,a0,1
    800059b0:	1a1047b7          	lui	a5,0x1a104
    800059b4:	38a7a623          	sw	a0,908(a5) # 1a10438c <_tbss_end+0x1a10438c>
    800059b8:	8082                	ret

00000000800059ba <alsaqr_periph_padframe_periphs_pad_gpio_f_23_mux_get>:
    800059ba:	1a1047b7          	lui	a5,0x1a104
    800059be:	38c7a503          	lw	a0,908(a5) # 1a10438c <_tbss_end+0x1a10438c>
    800059c2:	8905                	andi	a0,a0,1
    800059c4:	8082                	ret

00000000800059c6 <alsaqr_periph_padframe_periphs_pad_gpio_f_24_cfg_chip2pad_set>:
    800059c6:	1a104737          	lui	a4,0x1a104
    800059ca:	39072783          	lw	a5,912(a4) # 1a104390 <_tbss_end+0x1a104390>
    800059ce:	00a03533          	snez	a0,a0
    800059d2:	9bf9                	andi	a5,a5,-2
    800059d4:	8fc9                	or	a5,a5,a0
    800059d6:	38f72823          	sw	a5,912(a4)
    800059da:	8082                	ret

00000000800059dc <alsaqr_periph_padframe_periphs_pad_gpio_f_24_cfg_chip2pad_get>:
    800059dc:	1a1047b7          	lui	a5,0x1a104
    800059e0:	3907a503          	lw	a0,912(a5) # 1a104390 <_tbss_end+0x1a104390>
    800059e4:	8905                	andi	a0,a0,1
    800059e6:	8082                	ret

00000000800059e8 <alsaqr_periph_padframe_periphs_pad_gpio_f_24_cfg_oen_set>:
    800059e8:	1a104737          	lui	a4,0x1a104
    800059ec:	39072783          	lw	a5,912(a4) # 1a104390 <_tbss_end+0x1a104390>
    800059f0:	00a03533          	snez	a0,a0
    800059f4:	0015151b          	slliw	a0,a0,0x1
    800059f8:	9bf5                	andi	a5,a5,-3
    800059fa:	8fc9                	or	a5,a5,a0
    800059fc:	38f72823          	sw	a5,912(a4)
    80005a00:	8082                	ret

0000000080005a02 <alsaqr_periph_padframe_periphs_pad_gpio_f_24_cfg_oen_get>:
    80005a02:	1a1047b7          	lui	a5,0x1a104
    80005a06:	3907a503          	lw	a0,912(a5) # 1a104390 <_tbss_end+0x1a104390>
    80005a0a:	0015551b          	srliw	a0,a0,0x1
    80005a0e:	8905                	andi	a0,a0,1
    80005a10:	8082                	ret

0000000080005a12 <alsaqr_periph_padframe_periphs_pad_gpio_f_24_cfg_puen_set>:
    80005a12:	1a104737          	lui	a4,0x1a104
    80005a16:	39072783          	lw	a5,912(a4) # 1a104390 <_tbss_end+0x1a104390>
    80005a1a:	00a03533          	snez	a0,a0
    80005a1e:	0025151b          	slliw	a0,a0,0x2
    80005a22:	9bed                	andi	a5,a5,-5
    80005a24:	8fc9                	or	a5,a5,a0
    80005a26:	38f72823          	sw	a5,912(a4)
    80005a2a:	8082                	ret

0000000080005a2c <alsaqr_periph_padframe_periphs_pad_gpio_f_24_cfg_puen_get>:
    80005a2c:	1a1047b7          	lui	a5,0x1a104
    80005a30:	3907a503          	lw	a0,912(a5) # 1a104390 <_tbss_end+0x1a104390>
    80005a34:	0025551b          	srliw	a0,a0,0x2
    80005a38:	8905                	andi	a0,a0,1
    80005a3a:	8082                	ret

0000000080005a3c <alsaqr_periph_padframe_periphs_pad_gpio_f_24_mux_set>:
    80005a3c:	8905                	andi	a0,a0,1
    80005a3e:	1a1047b7          	lui	a5,0x1a104
    80005a42:	38a7aa23          	sw	a0,916(a5) # 1a104394 <_tbss_end+0x1a104394>
    80005a46:	8082                	ret

0000000080005a48 <alsaqr_periph_padframe_periphs_pad_gpio_f_24_mux_get>:
    80005a48:	1a1047b7          	lui	a5,0x1a104
    80005a4c:	3947a503          	lw	a0,916(a5) # 1a104394 <_tbss_end+0x1a104394>
    80005a50:	8905                	andi	a0,a0,1
    80005a52:	8082                	ret

0000000080005a54 <alsaqr_periph_padframe_periphs_pad_gpio_f_25_cfg_chip2pad_set>:
    80005a54:	1a104737          	lui	a4,0x1a104
    80005a58:	39872783          	lw	a5,920(a4) # 1a104398 <_tbss_end+0x1a104398>
    80005a5c:	00a03533          	snez	a0,a0
    80005a60:	9bf9                	andi	a5,a5,-2
    80005a62:	8fc9                	or	a5,a5,a0
    80005a64:	38f72c23          	sw	a5,920(a4)
    80005a68:	8082                	ret

0000000080005a6a <alsaqr_periph_padframe_periphs_pad_gpio_f_25_cfg_chip2pad_get>:
    80005a6a:	1a1047b7          	lui	a5,0x1a104
    80005a6e:	3987a503          	lw	a0,920(a5) # 1a104398 <_tbss_end+0x1a104398>
    80005a72:	8905                	andi	a0,a0,1
    80005a74:	8082                	ret

0000000080005a76 <alsaqr_periph_padframe_periphs_pad_gpio_f_25_cfg_oen_set>:
    80005a76:	1a104737          	lui	a4,0x1a104
    80005a7a:	39872783          	lw	a5,920(a4) # 1a104398 <_tbss_end+0x1a104398>
    80005a7e:	00a03533          	snez	a0,a0
    80005a82:	0015151b          	slliw	a0,a0,0x1
    80005a86:	9bf5                	andi	a5,a5,-3
    80005a88:	8fc9                	or	a5,a5,a0
    80005a8a:	38f72c23          	sw	a5,920(a4)
    80005a8e:	8082                	ret

0000000080005a90 <alsaqr_periph_padframe_periphs_pad_gpio_f_25_cfg_oen_get>:
    80005a90:	1a1047b7          	lui	a5,0x1a104
    80005a94:	3987a503          	lw	a0,920(a5) # 1a104398 <_tbss_end+0x1a104398>
    80005a98:	0015551b          	srliw	a0,a0,0x1
    80005a9c:	8905                	andi	a0,a0,1
    80005a9e:	8082                	ret

0000000080005aa0 <alsaqr_periph_padframe_periphs_pad_gpio_f_25_cfg_puen_set>:
    80005aa0:	1a104737          	lui	a4,0x1a104
    80005aa4:	39872783          	lw	a5,920(a4) # 1a104398 <_tbss_end+0x1a104398>
    80005aa8:	00a03533          	snez	a0,a0
    80005aac:	0025151b          	slliw	a0,a0,0x2
    80005ab0:	9bed                	andi	a5,a5,-5
    80005ab2:	8fc9                	or	a5,a5,a0
    80005ab4:	38f72c23          	sw	a5,920(a4)
    80005ab8:	8082                	ret

0000000080005aba <alsaqr_periph_padframe_periphs_pad_gpio_f_25_cfg_puen_get>:
    80005aba:	1a1047b7          	lui	a5,0x1a104
    80005abe:	3987a503          	lw	a0,920(a5) # 1a104398 <_tbss_end+0x1a104398>
    80005ac2:	0025551b          	srliw	a0,a0,0x2
    80005ac6:	8905                	andi	a0,a0,1
    80005ac8:	8082                	ret

0000000080005aca <alsaqr_periph_padframe_periphs_pad_gpio_f_25_mux_set>:
    80005aca:	8905                	andi	a0,a0,1
    80005acc:	1a1047b7          	lui	a5,0x1a104
    80005ad0:	38a7ae23          	sw	a0,924(a5) # 1a10439c <_tbss_end+0x1a10439c>
    80005ad4:	8082                	ret

0000000080005ad6 <alsaqr_periph_padframe_periphs_pad_gpio_f_25_mux_get>:
    80005ad6:	1a1047b7          	lui	a5,0x1a104
    80005ada:	39c7a503          	lw	a0,924(a5) # 1a10439c <_tbss_end+0x1a10439c>
    80005ade:	8905                	andi	a0,a0,1
    80005ae0:	8082                	ret

0000000080005ae2 <alsaqr_periph_padframe_periphs_pad_gpio_pwm0_cfg_chip2pad_set>:
    80005ae2:	1a104737          	lui	a4,0x1a104
    80005ae6:	3a072783          	lw	a5,928(a4) # 1a1043a0 <_tbss_end+0x1a1043a0>
    80005aea:	00a03533          	snez	a0,a0
    80005aee:	9bf9                	andi	a5,a5,-2
    80005af0:	8fc9                	or	a5,a5,a0
    80005af2:	3af72023          	sw	a5,928(a4)
    80005af6:	8082                	ret

0000000080005af8 <alsaqr_periph_padframe_periphs_pad_gpio_pwm0_cfg_chip2pad_get>:
    80005af8:	1a1047b7          	lui	a5,0x1a104
    80005afc:	3a07a503          	lw	a0,928(a5) # 1a1043a0 <_tbss_end+0x1a1043a0>
    80005b00:	8905                	andi	a0,a0,1
    80005b02:	8082                	ret

0000000080005b04 <alsaqr_periph_padframe_periphs_pad_gpio_pwm0_cfg_oen_set>:
    80005b04:	1a104737          	lui	a4,0x1a104
    80005b08:	3a072783          	lw	a5,928(a4) # 1a1043a0 <_tbss_end+0x1a1043a0>
    80005b0c:	00a03533          	snez	a0,a0
    80005b10:	0015151b          	slliw	a0,a0,0x1
    80005b14:	9bf5                	andi	a5,a5,-3
    80005b16:	8fc9                	or	a5,a5,a0
    80005b18:	3af72023          	sw	a5,928(a4)
    80005b1c:	8082                	ret

0000000080005b1e <alsaqr_periph_padframe_periphs_pad_gpio_pwm0_cfg_oen_get>:
    80005b1e:	1a1047b7          	lui	a5,0x1a104
    80005b22:	3a07a503          	lw	a0,928(a5) # 1a1043a0 <_tbss_end+0x1a1043a0>
    80005b26:	0015551b          	srliw	a0,a0,0x1
    80005b2a:	8905                	andi	a0,a0,1
    80005b2c:	8082                	ret

0000000080005b2e <alsaqr_periph_padframe_periphs_pad_gpio_pwm0_cfg_puen_set>:
    80005b2e:	1a104737          	lui	a4,0x1a104
    80005b32:	3a072783          	lw	a5,928(a4) # 1a1043a0 <_tbss_end+0x1a1043a0>
    80005b36:	00a03533          	snez	a0,a0
    80005b3a:	0025151b          	slliw	a0,a0,0x2
    80005b3e:	9bed                	andi	a5,a5,-5
    80005b40:	8fc9                	or	a5,a5,a0
    80005b42:	3af72023          	sw	a5,928(a4)
    80005b46:	8082                	ret

0000000080005b48 <alsaqr_periph_padframe_periphs_pad_gpio_pwm0_cfg_puen_get>:
    80005b48:	1a1047b7          	lui	a5,0x1a104
    80005b4c:	3a07a503          	lw	a0,928(a5) # 1a1043a0 <_tbss_end+0x1a1043a0>
    80005b50:	0025551b          	srliw	a0,a0,0x2
    80005b54:	8905                	andi	a0,a0,1
    80005b56:	8082                	ret

0000000080005b58 <alsaqr_periph_padframe_periphs_pad_gpio_pwm0_mux_set>:
    80005b58:	893d                	andi	a0,a0,15
    80005b5a:	1a1047b7          	lui	a5,0x1a104
    80005b5e:	3aa7a223          	sw	a0,932(a5) # 1a1043a4 <_tbss_end+0x1a1043a4>
    80005b62:	8082                	ret

0000000080005b64 <alsaqr_periph_padframe_periphs_pad_gpio_pwm0_mux_get>:
    80005b64:	1a1047b7          	lui	a5,0x1a104
    80005b68:	3a47a503          	lw	a0,932(a5) # 1a1043a4 <_tbss_end+0x1a1043a4>
    80005b6c:	893d                	andi	a0,a0,15
    80005b6e:	8082                	ret

0000000080005b70 <alsaqr_periph_padframe_periphs_pad_gpio_pwm1_cfg_chip2pad_set>:
    80005b70:	1a104737          	lui	a4,0x1a104
    80005b74:	3a872783          	lw	a5,936(a4) # 1a1043a8 <_tbss_end+0x1a1043a8>
    80005b78:	00a03533          	snez	a0,a0
    80005b7c:	9bf9                	andi	a5,a5,-2
    80005b7e:	8fc9                	or	a5,a5,a0
    80005b80:	3af72423          	sw	a5,936(a4)
    80005b84:	8082                	ret

0000000080005b86 <alsaqr_periph_padframe_periphs_pad_gpio_pwm1_cfg_chip2pad_get>:
    80005b86:	1a1047b7          	lui	a5,0x1a104
    80005b8a:	3a87a503          	lw	a0,936(a5) # 1a1043a8 <_tbss_end+0x1a1043a8>
    80005b8e:	8905                	andi	a0,a0,1
    80005b90:	8082                	ret

0000000080005b92 <alsaqr_periph_padframe_periphs_pad_gpio_pwm1_cfg_oen_set>:
    80005b92:	1a104737          	lui	a4,0x1a104
    80005b96:	3a872783          	lw	a5,936(a4) # 1a1043a8 <_tbss_end+0x1a1043a8>
    80005b9a:	00a03533          	snez	a0,a0
    80005b9e:	0015151b          	slliw	a0,a0,0x1
    80005ba2:	9bf5                	andi	a5,a5,-3
    80005ba4:	8fc9                	or	a5,a5,a0
    80005ba6:	3af72423          	sw	a5,936(a4)
    80005baa:	8082                	ret

0000000080005bac <alsaqr_periph_padframe_periphs_pad_gpio_pwm1_cfg_oen_get>:
    80005bac:	1a1047b7          	lui	a5,0x1a104
    80005bb0:	3a87a503          	lw	a0,936(a5) # 1a1043a8 <_tbss_end+0x1a1043a8>
    80005bb4:	0015551b          	srliw	a0,a0,0x1
    80005bb8:	8905                	andi	a0,a0,1
    80005bba:	8082                	ret

0000000080005bbc <alsaqr_periph_padframe_periphs_pad_gpio_pwm1_cfg_puen_set>:
    80005bbc:	1a104737          	lui	a4,0x1a104
    80005bc0:	3a872783          	lw	a5,936(a4) # 1a1043a8 <_tbss_end+0x1a1043a8>
    80005bc4:	00a03533          	snez	a0,a0
    80005bc8:	0025151b          	slliw	a0,a0,0x2
    80005bcc:	9bed                	andi	a5,a5,-5
    80005bce:	8fc9                	or	a5,a5,a0
    80005bd0:	3af72423          	sw	a5,936(a4)
    80005bd4:	8082                	ret

0000000080005bd6 <alsaqr_periph_padframe_periphs_pad_gpio_pwm1_cfg_puen_get>:
    80005bd6:	1a1047b7          	lui	a5,0x1a104
    80005bda:	3a87a503          	lw	a0,936(a5) # 1a1043a8 <_tbss_end+0x1a1043a8>
    80005bde:	0025551b          	srliw	a0,a0,0x2
    80005be2:	8905                	andi	a0,a0,1
    80005be4:	8082                	ret

0000000080005be6 <alsaqr_periph_padframe_periphs_pad_gpio_pwm1_mux_set>:
    80005be6:	893d                	andi	a0,a0,15
    80005be8:	1a1047b7          	lui	a5,0x1a104
    80005bec:	3aa7a623          	sw	a0,940(a5) # 1a1043ac <_tbss_end+0x1a1043ac>
    80005bf0:	8082                	ret

0000000080005bf2 <alsaqr_periph_padframe_periphs_pad_gpio_pwm1_mux_get>:
    80005bf2:	1a1047b7          	lui	a5,0x1a104
    80005bf6:	3ac7a503          	lw	a0,940(a5) # 1a1043ac <_tbss_end+0x1a1043ac>
    80005bfa:	893d                	andi	a0,a0,15
    80005bfc:	8082                	ret

0000000080005bfe <alsaqr_periph_padframe_periphs_pad_gpio_pwm2_cfg_chip2pad_set>:
    80005bfe:	1a104737          	lui	a4,0x1a104
    80005c02:	3b072783          	lw	a5,944(a4) # 1a1043b0 <_tbss_end+0x1a1043b0>
    80005c06:	00a03533          	snez	a0,a0
    80005c0a:	9bf9                	andi	a5,a5,-2
    80005c0c:	8fc9                	or	a5,a5,a0
    80005c0e:	3af72823          	sw	a5,944(a4)
    80005c12:	8082                	ret

0000000080005c14 <alsaqr_periph_padframe_periphs_pad_gpio_pwm2_cfg_chip2pad_get>:
    80005c14:	1a1047b7          	lui	a5,0x1a104
    80005c18:	3b07a503          	lw	a0,944(a5) # 1a1043b0 <_tbss_end+0x1a1043b0>
    80005c1c:	8905                	andi	a0,a0,1
    80005c1e:	8082                	ret

0000000080005c20 <alsaqr_periph_padframe_periphs_pad_gpio_pwm2_cfg_oen_set>:
    80005c20:	1a104737          	lui	a4,0x1a104
    80005c24:	3b072783          	lw	a5,944(a4) # 1a1043b0 <_tbss_end+0x1a1043b0>
    80005c28:	00a03533          	snez	a0,a0
    80005c2c:	0015151b          	slliw	a0,a0,0x1
    80005c30:	9bf5                	andi	a5,a5,-3
    80005c32:	8fc9                	or	a5,a5,a0
    80005c34:	3af72823          	sw	a5,944(a4)
    80005c38:	8082                	ret

0000000080005c3a <alsaqr_periph_padframe_periphs_pad_gpio_pwm2_cfg_oen_get>:
    80005c3a:	1a1047b7          	lui	a5,0x1a104
    80005c3e:	3b07a503          	lw	a0,944(a5) # 1a1043b0 <_tbss_end+0x1a1043b0>
    80005c42:	0015551b          	srliw	a0,a0,0x1
    80005c46:	8905                	andi	a0,a0,1
    80005c48:	8082                	ret

0000000080005c4a <alsaqr_periph_padframe_periphs_pad_gpio_pwm2_cfg_puen_set>:
    80005c4a:	1a104737          	lui	a4,0x1a104
    80005c4e:	3b072783          	lw	a5,944(a4) # 1a1043b0 <_tbss_end+0x1a1043b0>
    80005c52:	00a03533          	snez	a0,a0
    80005c56:	0025151b          	slliw	a0,a0,0x2
    80005c5a:	9bed                	andi	a5,a5,-5
    80005c5c:	8fc9                	or	a5,a5,a0
    80005c5e:	3af72823          	sw	a5,944(a4)
    80005c62:	8082                	ret

0000000080005c64 <alsaqr_periph_padframe_periphs_pad_gpio_pwm2_cfg_puen_get>:
    80005c64:	1a1047b7          	lui	a5,0x1a104
    80005c68:	3b07a503          	lw	a0,944(a5) # 1a1043b0 <_tbss_end+0x1a1043b0>
    80005c6c:	0025551b          	srliw	a0,a0,0x2
    80005c70:	8905                	andi	a0,a0,1
    80005c72:	8082                	ret

0000000080005c74 <alsaqr_periph_padframe_periphs_pad_gpio_pwm2_mux_set>:
    80005c74:	893d                	andi	a0,a0,15
    80005c76:	1a1047b7          	lui	a5,0x1a104
    80005c7a:	3aa7aa23          	sw	a0,948(a5) # 1a1043b4 <_tbss_end+0x1a1043b4>
    80005c7e:	8082                	ret

0000000080005c80 <alsaqr_periph_padframe_periphs_pad_gpio_pwm2_mux_get>:
    80005c80:	1a1047b7          	lui	a5,0x1a104
    80005c84:	3b47a503          	lw	a0,948(a5) # 1a1043b4 <_tbss_end+0x1a1043b4>
    80005c88:	893d                	andi	a0,a0,15
    80005c8a:	8082                	ret

0000000080005c8c <alsaqr_periph_padframe_periphs_pad_gpio_pwm3_cfg_chip2pad_set>:
    80005c8c:	1a104737          	lui	a4,0x1a104
    80005c90:	3b872783          	lw	a5,952(a4) # 1a1043b8 <_tbss_end+0x1a1043b8>
    80005c94:	00a03533          	snez	a0,a0
    80005c98:	9bf9                	andi	a5,a5,-2
    80005c9a:	8fc9                	or	a5,a5,a0
    80005c9c:	3af72c23          	sw	a5,952(a4)
    80005ca0:	8082                	ret

0000000080005ca2 <alsaqr_periph_padframe_periphs_pad_gpio_pwm3_cfg_chip2pad_get>:
    80005ca2:	1a1047b7          	lui	a5,0x1a104
    80005ca6:	3b87a503          	lw	a0,952(a5) # 1a1043b8 <_tbss_end+0x1a1043b8>
    80005caa:	8905                	andi	a0,a0,1
    80005cac:	8082                	ret

0000000080005cae <alsaqr_periph_padframe_periphs_pad_gpio_pwm3_cfg_oen_set>:
    80005cae:	1a104737          	lui	a4,0x1a104
    80005cb2:	3b872783          	lw	a5,952(a4) # 1a1043b8 <_tbss_end+0x1a1043b8>
    80005cb6:	00a03533          	snez	a0,a0
    80005cba:	0015151b          	slliw	a0,a0,0x1
    80005cbe:	9bf5                	andi	a5,a5,-3
    80005cc0:	8fc9                	or	a5,a5,a0
    80005cc2:	3af72c23          	sw	a5,952(a4)
    80005cc6:	8082                	ret

0000000080005cc8 <alsaqr_periph_padframe_periphs_pad_gpio_pwm3_cfg_oen_get>:
    80005cc8:	1a1047b7          	lui	a5,0x1a104
    80005ccc:	3b87a503          	lw	a0,952(a5) # 1a1043b8 <_tbss_end+0x1a1043b8>
    80005cd0:	0015551b          	srliw	a0,a0,0x1
    80005cd4:	8905                	andi	a0,a0,1
    80005cd6:	8082                	ret

0000000080005cd8 <alsaqr_periph_padframe_periphs_pad_gpio_pwm3_cfg_puen_set>:
    80005cd8:	1a104737          	lui	a4,0x1a104
    80005cdc:	3b872783          	lw	a5,952(a4) # 1a1043b8 <_tbss_end+0x1a1043b8>
    80005ce0:	00a03533          	snez	a0,a0
    80005ce4:	0025151b          	slliw	a0,a0,0x2
    80005ce8:	9bed                	andi	a5,a5,-5
    80005cea:	8fc9                	or	a5,a5,a0
    80005cec:	3af72c23          	sw	a5,952(a4)
    80005cf0:	8082                	ret

0000000080005cf2 <alsaqr_periph_padframe_periphs_pad_gpio_pwm3_cfg_puen_get>:
    80005cf2:	1a1047b7          	lui	a5,0x1a104
    80005cf6:	3b87a503          	lw	a0,952(a5) # 1a1043b8 <_tbss_end+0x1a1043b8>
    80005cfa:	0025551b          	srliw	a0,a0,0x2
    80005cfe:	8905                	andi	a0,a0,1
    80005d00:	8082                	ret

0000000080005d02 <alsaqr_periph_padframe_periphs_pad_gpio_pwm3_mux_set>:
    80005d02:	893d                	andi	a0,a0,15
    80005d04:	1a1047b7          	lui	a5,0x1a104
    80005d08:	3aa7ae23          	sw	a0,956(a5) # 1a1043bc <_tbss_end+0x1a1043bc>
    80005d0c:	8082                	ret

0000000080005d0e <alsaqr_periph_padframe_periphs_pad_gpio_pwm3_mux_get>:
    80005d0e:	1a1047b7          	lui	a5,0x1a104
    80005d12:	3bc7a503          	lw	a0,956(a5) # 1a1043bc <_tbss_end+0x1a1043bc>
    80005d16:	893d                	andi	a0,a0,15
    80005d18:	8082                	ret

0000000080005d1a <alsaqr_periph_padframe_periphs_pad_gpio_pwm4_cfg_chip2pad_set>:
    80005d1a:	1a104737          	lui	a4,0x1a104
    80005d1e:	3c072783          	lw	a5,960(a4) # 1a1043c0 <_tbss_end+0x1a1043c0>
    80005d22:	00a03533          	snez	a0,a0
    80005d26:	9bf9                	andi	a5,a5,-2
    80005d28:	8fc9                	or	a5,a5,a0
    80005d2a:	3cf72023          	sw	a5,960(a4)
    80005d2e:	8082                	ret

0000000080005d30 <alsaqr_periph_padframe_periphs_pad_gpio_pwm4_cfg_chip2pad_get>:
    80005d30:	1a1047b7          	lui	a5,0x1a104
    80005d34:	3c07a503          	lw	a0,960(a5) # 1a1043c0 <_tbss_end+0x1a1043c0>
    80005d38:	8905                	andi	a0,a0,1
    80005d3a:	8082                	ret

0000000080005d3c <alsaqr_periph_padframe_periphs_pad_gpio_pwm4_cfg_oen_set>:
    80005d3c:	1a104737          	lui	a4,0x1a104
    80005d40:	3c072783          	lw	a5,960(a4) # 1a1043c0 <_tbss_end+0x1a1043c0>
    80005d44:	00a03533          	snez	a0,a0
    80005d48:	0015151b          	slliw	a0,a0,0x1
    80005d4c:	9bf5                	andi	a5,a5,-3
    80005d4e:	8fc9                	or	a5,a5,a0
    80005d50:	3cf72023          	sw	a5,960(a4)
    80005d54:	8082                	ret

0000000080005d56 <alsaqr_periph_padframe_periphs_pad_gpio_pwm4_cfg_oen_get>:
    80005d56:	1a1047b7          	lui	a5,0x1a104
    80005d5a:	3c07a503          	lw	a0,960(a5) # 1a1043c0 <_tbss_end+0x1a1043c0>
    80005d5e:	0015551b          	srliw	a0,a0,0x1
    80005d62:	8905                	andi	a0,a0,1
    80005d64:	8082                	ret

0000000080005d66 <alsaqr_periph_padframe_periphs_pad_gpio_pwm4_cfg_puen_set>:
    80005d66:	1a104737          	lui	a4,0x1a104
    80005d6a:	3c072783          	lw	a5,960(a4) # 1a1043c0 <_tbss_end+0x1a1043c0>
    80005d6e:	00a03533          	snez	a0,a0
    80005d72:	0025151b          	slliw	a0,a0,0x2
    80005d76:	9bed                	andi	a5,a5,-5
    80005d78:	8fc9                	or	a5,a5,a0
    80005d7a:	3cf72023          	sw	a5,960(a4)
    80005d7e:	8082                	ret

0000000080005d80 <alsaqr_periph_padframe_periphs_pad_gpio_pwm4_cfg_puen_get>:
    80005d80:	1a1047b7          	lui	a5,0x1a104
    80005d84:	3c07a503          	lw	a0,960(a5) # 1a1043c0 <_tbss_end+0x1a1043c0>
    80005d88:	0025551b          	srliw	a0,a0,0x2
    80005d8c:	8905                	andi	a0,a0,1
    80005d8e:	8082                	ret

0000000080005d90 <alsaqr_periph_padframe_periphs_pad_gpio_pwm4_mux_set>:
    80005d90:	893d                	andi	a0,a0,15
    80005d92:	1a1047b7          	lui	a5,0x1a104
    80005d96:	3ca7a223          	sw	a0,964(a5) # 1a1043c4 <_tbss_end+0x1a1043c4>
    80005d9a:	8082                	ret

0000000080005d9c <alsaqr_periph_padframe_periphs_pad_gpio_pwm4_mux_get>:
    80005d9c:	1a1047b7          	lui	a5,0x1a104
    80005da0:	3c47a503          	lw	a0,964(a5) # 1a1043c4 <_tbss_end+0x1a1043c4>
    80005da4:	893d                	andi	a0,a0,15
    80005da6:	8082                	ret

0000000080005da8 <alsaqr_periph_padframe_periphs_pad_gpio_pwm5_cfg_chip2pad_set>:
    80005da8:	1a104737          	lui	a4,0x1a104
    80005dac:	3c872783          	lw	a5,968(a4) # 1a1043c8 <_tbss_end+0x1a1043c8>
    80005db0:	00a03533          	snez	a0,a0
    80005db4:	9bf9                	andi	a5,a5,-2
    80005db6:	8fc9                	or	a5,a5,a0
    80005db8:	3cf72423          	sw	a5,968(a4)
    80005dbc:	8082                	ret

0000000080005dbe <alsaqr_periph_padframe_periphs_pad_gpio_pwm5_cfg_chip2pad_get>:
    80005dbe:	1a1047b7          	lui	a5,0x1a104
    80005dc2:	3c87a503          	lw	a0,968(a5) # 1a1043c8 <_tbss_end+0x1a1043c8>
    80005dc6:	8905                	andi	a0,a0,1
    80005dc8:	8082                	ret

0000000080005dca <alsaqr_periph_padframe_periphs_pad_gpio_pwm5_cfg_oen_set>:
    80005dca:	1a104737          	lui	a4,0x1a104
    80005dce:	3c872783          	lw	a5,968(a4) # 1a1043c8 <_tbss_end+0x1a1043c8>
    80005dd2:	00a03533          	snez	a0,a0
    80005dd6:	0015151b          	slliw	a0,a0,0x1
    80005dda:	9bf5                	andi	a5,a5,-3
    80005ddc:	8fc9                	or	a5,a5,a0
    80005dde:	3cf72423          	sw	a5,968(a4)
    80005de2:	8082                	ret

0000000080005de4 <alsaqr_periph_padframe_periphs_pad_gpio_pwm5_cfg_oen_get>:
    80005de4:	1a1047b7          	lui	a5,0x1a104
    80005de8:	3c87a503          	lw	a0,968(a5) # 1a1043c8 <_tbss_end+0x1a1043c8>
    80005dec:	0015551b          	srliw	a0,a0,0x1
    80005df0:	8905                	andi	a0,a0,1
    80005df2:	8082                	ret

0000000080005df4 <alsaqr_periph_padframe_periphs_pad_gpio_pwm5_cfg_puen_set>:
    80005df4:	1a104737          	lui	a4,0x1a104
    80005df8:	3c872783          	lw	a5,968(a4) # 1a1043c8 <_tbss_end+0x1a1043c8>
    80005dfc:	00a03533          	snez	a0,a0
    80005e00:	0025151b          	slliw	a0,a0,0x2
    80005e04:	9bed                	andi	a5,a5,-5
    80005e06:	8fc9                	or	a5,a5,a0
    80005e08:	3cf72423          	sw	a5,968(a4)
    80005e0c:	8082                	ret

0000000080005e0e <alsaqr_periph_padframe_periphs_pad_gpio_pwm5_cfg_puen_get>:
    80005e0e:	1a1047b7          	lui	a5,0x1a104
    80005e12:	3c87a503          	lw	a0,968(a5) # 1a1043c8 <_tbss_end+0x1a1043c8>
    80005e16:	0025551b          	srliw	a0,a0,0x2
    80005e1a:	8905                	andi	a0,a0,1
    80005e1c:	8082                	ret

0000000080005e1e <alsaqr_periph_padframe_periphs_pad_gpio_pwm5_mux_set>:
    80005e1e:	893d                	andi	a0,a0,15
    80005e20:	1a1047b7          	lui	a5,0x1a104
    80005e24:	3ca7a623          	sw	a0,972(a5) # 1a1043cc <_tbss_end+0x1a1043cc>
    80005e28:	8082                	ret

0000000080005e2a <alsaqr_periph_padframe_periphs_pad_gpio_pwm5_mux_get>:
    80005e2a:	1a1047b7          	lui	a5,0x1a104
    80005e2e:	3cc7a503          	lw	a0,972(a5) # 1a1043cc <_tbss_end+0x1a1043cc>
    80005e32:	893d                	andi	a0,a0,15
    80005e34:	8082                	ret

0000000080005e36 <alsaqr_periph_padframe_periphs_pad_gpio_pwm6_cfg_chip2pad_set>:
    80005e36:	1a104737          	lui	a4,0x1a104
    80005e3a:	3d072783          	lw	a5,976(a4) # 1a1043d0 <_tbss_end+0x1a1043d0>
    80005e3e:	00a03533          	snez	a0,a0
    80005e42:	9bf9                	andi	a5,a5,-2
    80005e44:	8fc9                	or	a5,a5,a0
    80005e46:	3cf72823          	sw	a5,976(a4)
    80005e4a:	8082                	ret

0000000080005e4c <alsaqr_periph_padframe_periphs_pad_gpio_pwm6_cfg_chip2pad_get>:
    80005e4c:	1a1047b7          	lui	a5,0x1a104
    80005e50:	3d07a503          	lw	a0,976(a5) # 1a1043d0 <_tbss_end+0x1a1043d0>
    80005e54:	8905                	andi	a0,a0,1
    80005e56:	8082                	ret

0000000080005e58 <alsaqr_periph_padframe_periphs_pad_gpio_pwm6_cfg_oen_set>:
    80005e58:	1a104737          	lui	a4,0x1a104
    80005e5c:	3d072783          	lw	a5,976(a4) # 1a1043d0 <_tbss_end+0x1a1043d0>
    80005e60:	00a03533          	snez	a0,a0
    80005e64:	0015151b          	slliw	a0,a0,0x1
    80005e68:	9bf5                	andi	a5,a5,-3
    80005e6a:	8fc9                	or	a5,a5,a0
    80005e6c:	3cf72823          	sw	a5,976(a4)
    80005e70:	8082                	ret

0000000080005e72 <alsaqr_periph_padframe_periphs_pad_gpio_pwm6_cfg_oen_get>:
    80005e72:	1a1047b7          	lui	a5,0x1a104
    80005e76:	3d07a503          	lw	a0,976(a5) # 1a1043d0 <_tbss_end+0x1a1043d0>
    80005e7a:	0015551b          	srliw	a0,a0,0x1
    80005e7e:	8905                	andi	a0,a0,1
    80005e80:	8082                	ret

0000000080005e82 <alsaqr_periph_padframe_periphs_pad_gpio_pwm6_cfg_puen_set>:
    80005e82:	1a104737          	lui	a4,0x1a104
    80005e86:	3d072783          	lw	a5,976(a4) # 1a1043d0 <_tbss_end+0x1a1043d0>
    80005e8a:	00a03533          	snez	a0,a0
    80005e8e:	0025151b          	slliw	a0,a0,0x2
    80005e92:	9bed                	andi	a5,a5,-5
    80005e94:	8fc9                	or	a5,a5,a0
    80005e96:	3cf72823          	sw	a5,976(a4)
    80005e9a:	8082                	ret

0000000080005e9c <alsaqr_periph_padframe_periphs_pad_gpio_pwm6_cfg_puen_get>:
    80005e9c:	1a1047b7          	lui	a5,0x1a104
    80005ea0:	3d07a503          	lw	a0,976(a5) # 1a1043d0 <_tbss_end+0x1a1043d0>
    80005ea4:	0025551b          	srliw	a0,a0,0x2
    80005ea8:	8905                	andi	a0,a0,1
    80005eaa:	8082                	ret

0000000080005eac <alsaqr_periph_padframe_periphs_pad_gpio_pwm6_mux_set>:
    80005eac:	893d                	andi	a0,a0,15
    80005eae:	1a1047b7          	lui	a5,0x1a104
    80005eb2:	3ca7aa23          	sw	a0,980(a5) # 1a1043d4 <_tbss_end+0x1a1043d4>
    80005eb6:	8082                	ret

0000000080005eb8 <alsaqr_periph_padframe_periphs_pad_gpio_pwm6_mux_get>:
    80005eb8:	1a1047b7          	lui	a5,0x1a104
    80005ebc:	3d47a503          	lw	a0,980(a5) # 1a1043d4 <_tbss_end+0x1a1043d4>
    80005ec0:	893d                	andi	a0,a0,15
    80005ec2:	8082                	ret

0000000080005ec4 <alsaqr_periph_padframe_periphs_pad_gpio_pwm7_cfg_chip2pad_set>:
    80005ec4:	1a104737          	lui	a4,0x1a104
    80005ec8:	3d872783          	lw	a5,984(a4) # 1a1043d8 <_tbss_end+0x1a1043d8>
    80005ecc:	00a03533          	snez	a0,a0
    80005ed0:	9bf9                	andi	a5,a5,-2
    80005ed2:	8fc9                	or	a5,a5,a0
    80005ed4:	3cf72c23          	sw	a5,984(a4)
    80005ed8:	8082                	ret

0000000080005eda <alsaqr_periph_padframe_periphs_pad_gpio_pwm7_cfg_chip2pad_get>:
    80005eda:	1a1047b7          	lui	a5,0x1a104
    80005ede:	3d87a503          	lw	a0,984(a5) # 1a1043d8 <_tbss_end+0x1a1043d8>
    80005ee2:	8905                	andi	a0,a0,1
    80005ee4:	8082                	ret

0000000080005ee6 <alsaqr_periph_padframe_periphs_pad_gpio_pwm7_cfg_oen_set>:
    80005ee6:	1a104737          	lui	a4,0x1a104
    80005eea:	3d872783          	lw	a5,984(a4) # 1a1043d8 <_tbss_end+0x1a1043d8>
    80005eee:	00a03533          	snez	a0,a0
    80005ef2:	0015151b          	slliw	a0,a0,0x1
    80005ef6:	9bf5                	andi	a5,a5,-3
    80005ef8:	8fc9                	or	a5,a5,a0
    80005efa:	3cf72c23          	sw	a5,984(a4)
    80005efe:	8082                	ret

0000000080005f00 <alsaqr_periph_padframe_periphs_pad_gpio_pwm7_cfg_oen_get>:
    80005f00:	1a1047b7          	lui	a5,0x1a104
    80005f04:	3d87a503          	lw	a0,984(a5) # 1a1043d8 <_tbss_end+0x1a1043d8>
    80005f08:	0015551b          	srliw	a0,a0,0x1
    80005f0c:	8905                	andi	a0,a0,1
    80005f0e:	8082                	ret

0000000080005f10 <alsaqr_periph_padframe_periphs_pad_gpio_pwm7_cfg_puen_set>:
    80005f10:	1a104737          	lui	a4,0x1a104
    80005f14:	3d872783          	lw	a5,984(a4) # 1a1043d8 <_tbss_end+0x1a1043d8>
    80005f18:	00a03533          	snez	a0,a0
    80005f1c:	0025151b          	slliw	a0,a0,0x2
    80005f20:	9bed                	andi	a5,a5,-5
    80005f22:	8fc9                	or	a5,a5,a0
    80005f24:	3cf72c23          	sw	a5,984(a4)
    80005f28:	8082                	ret

0000000080005f2a <alsaqr_periph_padframe_periphs_pad_gpio_pwm7_cfg_puen_get>:
    80005f2a:	1a1047b7          	lui	a5,0x1a104
    80005f2e:	3d87a503          	lw	a0,984(a5) # 1a1043d8 <_tbss_end+0x1a1043d8>
    80005f32:	0025551b          	srliw	a0,a0,0x2
    80005f36:	8905                	andi	a0,a0,1
    80005f38:	8082                	ret

0000000080005f3a <alsaqr_periph_padframe_periphs_pad_gpio_pwm7_mux_set>:
    80005f3a:	893d                	andi	a0,a0,15
    80005f3c:	1a1047b7          	lui	a5,0x1a104
    80005f40:	3ca7ae23          	sw	a0,988(a5) # 1a1043dc <_tbss_end+0x1a1043dc>
    80005f44:	8082                	ret

0000000080005f46 <alsaqr_periph_padframe_periphs_pad_gpio_pwm7_mux_get>:
    80005f46:	1a1047b7          	lui	a5,0x1a104
    80005f4a:	3dc7a503          	lw	a0,988(a5) # 1a1043dc <_tbss_end+0x1a1043dc>
    80005f4e:	893d                	andi	a0,a0,15
    80005f50:	8082                	ret

Disassemblamento della sezione .text.startup:

0000000080005f52 <main-0x18>:
    80005f52:	1141                	addi	sp,sp,-16
    80005f54:	00000517          	auipc	a0,0x0
    80005f58:	24c50513          	addi	a0,a0,588 # 800061a0 <main+0x236>
    80005f5c:	e406                	sd	ra,8(sp)
    80005f5e:	c8efb0ef          	jal	ra,800013ec <printstr>
    80005f62:	60a2                	ld	ra,8(sp)
    80005f64:	557d                	li	a0,-1
    80005f66:	0141                	addi	sp,sp,16
    80005f68:	8082                	ret

0000000080005f6a <main>:
    80005f6a:	1101                	addi	sp,sp,-32
    80005f6c:	ec06                	sd	ra,24(sp)
    80005f6e:	e822                	sd	s0,16(sp)
    80005f70:	e426                	sd	s1,8(sp)
    80005f72:	40000737          	lui	a4,0x40000
    80005f76:	08300793          	li	a5,131
    80005f7a:	c75c                	sw	a5,12(a4)
    80005f7c:	00072223          	sw	zero,4(a4) # 40000004 <_tbss_end+0x40000004>
    80005f80:	47a5                	li	a5,9
    80005f82:	c31c                	sw	a5,0(a4)
    80005f84:	0a700793          	li	a5,167
    80005f88:	c71c                	sw	a5,8(a4)
    80005f8a:	478d                	li	a5,3
    80005f8c:	c75c                	sw	a5,12(a4)
    80005f8e:	4354                	lw	a3,4(a4)
    80005f90:	4405                	li	s0,1
    80005f92:	1a1047b7          	lui	a5,0x1a104
    80005f96:	0f06f693          	andi	a3,a3,240
    80005f9a:	0026e693          	ori	a3,a3,2
    80005f9e:	c354                	sw	a3,4(a4)
    80005fa0:	3487ae23          	sw	s0,860(a5) # 1a10435c <_tbss_end+0x1a10435c>
    80005fa4:	3687a223          	sw	s0,868(a5)
    80005fa8:	3687a623          	sw	s0,876(a5)
    80005fac:	3687aa23          	sw	s0,884(a5)
    80005fb0:	3687ae23          	sw	s0,892(a5)
    80005fb4:	3887a223          	sw	s0,900(a5)
    80005fb8:	3887a623          	sw	s0,908(a5)
    80005fbc:	3887aa23          	sw	s0,916(a5)
    80005fc0:	3887ae23          	sw	s0,924(a5)
    80005fc4:	500004b7          	lui	s1,0x50000
    80005fc8:	c080                	sw	s0,0(s1)
    80005fca:	00000517          	auipc	a0,0x0
    80005fce:	1fe50513          	addi	a0,a0,510 # 800061c8 <main+0x25e>
    80005fd2:	a09fb0ef          	jal	ra,800019da <printf>
    80005fd6:	00000517          	auipc	a0,0x0
    80005fda:	20a50513          	addi	a0,a0,522 # 800061e0 <main+0x276>
    80005fde:	c0c0                	sw	s0,4(s1)
    80005fe0:	9fbfb0ef          	jal	ra,800019da <printf>
    80005fe4:	4711                	li	a4,4
    80005fe6:	67c5                	lui	a5,0x11
    80005fe8:	1707879b          	addiw	a5,a5,368
    80005fec:	00f75a63          	ble	a5,a4,80006000 <main+0x96>
    80005ff0:	6711                	lui	a4,0x4
    80005ff2:	45c70713          	addi	a4,a4,1116 # 445c <_tbss_end+0x445c>
    80005ff6:	87ba                	mv	a5,a4
    80005ff8:	17fd                	addi	a5,a5,-1
    80005ffa:	0007871b          	sext.w	a4,a5
    80005ffe:	ffe5                	bnez	a5,80005ff6 <main+0x8c>
    80006000:	00000517          	auipc	a0,0x0
    80006004:	1f850513          	addi	a0,a0,504 # 800061f8 <main+0x28e>
    80006008:	9d3fb0ef          	jal	ra,800019da <printf>
    8000600c:	40000737          	lui	a4,0x40000
    80006010:	4b5c                	lw	a5,20(a4)
    80006012:	0407f793          	andi	a5,a5,64
    80006016:	dfed                	beqz	a5,80006010 <main+0xa6>
    80006018:	60e2                	ld	ra,24(sp)
    8000601a:	6442                	ld	s0,16(sp)
    8000601c:	64a2                	ld	s1,8(sp)
    8000601e:	4501                	li	a0,0
    80006020:	6105                	addi	sp,sp,32
    80006022:	8082                	ret

Disassemblamento della sezione .data:

0000000080006208 <remu10_table>:
    80006208:	0100                	addi	s0,sp,128
    8000620a:	0202                	slli	tp,tp,0x0
    8000620c:	05040303          	lb	t1,80(s0)
    80006210:	0605                	addi	a2,a2,1
    80006212:	08080707          	0x8080707
    80006216:	0009                	c.addi	zero,2
